

Microchip MPLAB XC8 Assembler V3.10 build 20250813170317 
                                                                                               Tue Apr 28 09:52:22 2026

Microchip MPLAB XC8 C Compiler v3.10 (Free license) build 20250813170317 Og1 
     1                           	processor	16F886
     2                           	pagewidth 120
     3                           	opt	flic
     4                           	psect	idataBANK2,global,class=CODE,space=0,delta=2,noexec
     5                           	psect	idataBANK3,global,class=CODE,space=0,delta=2,noexec
     6                           	psect	cinit,global,class=CODE,space=0,merge=1,delta=2
     7                           	psect	bssCOMMON,global,class=COMMON,space=1,delta=1,noexec
     8                           	psect	bssBANK1,global,class=BANK1,space=1,delta=1,noexec
     9                           	psect	bssBANK3,global,class=BANK3,space=1,delta=1,noexec
    10                           	psect	dataBANK3,global,class=BANK3,space=1,delta=1,noexec
    11                           	psect	dataBANK2,global,class=BANK2,space=1,delta=1,noexec
    12                           	psect	inittext,global,class=CODE,space=0,delta=2
    13                           	psect	clrtext,global,class=CODE,space=0,delta=2
    14                           	psect	cstackBANK3,global,class=BANK3,space=1,delta=1,noexec
    15                           	psect	cstackBANK1,global,class=BANK1,space=1,delta=1,noexec
    16                           	psect	cstackCOMMON,global,class=COMMON,space=1,delta=1,noexec
    17                           	psect	cstackBANK0,global,class=BANK0,space=1,delta=1,noexec
    18                           	psect	maintext,global,class=CODE,space=0,split=1,delta=2
    19                           	psect	text1,local,class=CODE,space=0,merge=1,delta=2
    20                           	psect	text2,local,class=CODE,space=0,merge=1,delta=2
    21                           	psect	text3,local,class=CODE,space=0,merge=1,delta=2,group=1
    22                           	psect	text4,local,class=CODE,space=0,merge=1,delta=2,group=1
    23                           	psect	text5,local,class=CODE,space=0,merge=1,delta=2,group=1
    24                           	psect	text6,local,class=CODE,space=0,merge=1,delta=2,group=1
    25                           	psect	text7,local,class=CODE,space=0,merge=1,delta=2,group=1
    26                           	psect	text8,local,class=CODE,space=0,merge=1,delta=2,group=1
    27                           	psect	text9,local,class=CODE,space=0,merge=1,delta=2
    28                           	psect	text10,local,class=CODE,space=0,merge=1,delta=2
    29                           	psect	text11,local,class=CODE,space=0,merge=1,delta=2
    30                           	psect	text12,local,class=CODE,space=0,merge=1,delta=2
    31                           	psect	text13,local,class=CODE,space=0,merge=1,delta=2
    32                           	psect	text14,local,class=CODE,space=0,merge=1,delta=2
    33                           	psect	text15,local,class=CODE,space=0,merge=1,delta=2
    34                           	psect	text16,local,class=CODE,space=0,merge=1,delta=2,group=1
    35                           	psect	text17,local,class=CODE,space=0,merge=1,delta=2,group=1
    36                           	psect	text18,local,class=CODE,space=0,merge=1,delta=2,group=1
    37                           	psect	text19,local,class=CODE,space=0,merge=1,delta=2,group=1
    38                           	psect	text20,local,class=CODE,space=0,merge=1,delta=2
    39                           	psect	text21,local,class=CODE,space=0,merge=1,delta=2
    40                           	psect	intentry,global,class=CODE,space=0,delta=2
    41                           	psect	text22,local,class=CODE,space=0,merge=1,delta=2
    42                           	psect	config,global,abs,ovrld,class=CONFIG,space=4,delta=2,noexec
    43                           	dabs	1,0x7E,2
    44     0000                     
    45                           ; Generated 12/10/2023 GMT
    46                           ; 
    47                           ; Copyright © 2023, Microchip Technology Inc. and its subsidiaries ("Microchip")
    48                           ; All rights reserved.
    49                           ; 
    50                           ; This software is developed by Microchip Technology Inc. and its subsidiaries ("Microch
      +                          ip").
    51                           ; 
    52                           ; Redistribution and use in source and binary forms, with or without modification, are
    53                           ; permitted provided that the following conditions are met:
    54                           ; 
    55                           ;     1. Redistributions of source code must retain the above copyright notice, this lis
      +                          t of
    56                           ;        conditions and the following disclaimer.
    57                           ; 
    58                           ;     2. Redistributions in binary form must reproduce the above copyright notice, this 
      +                          list
    59                           ;        of conditions and the following disclaimer in the documentation and/or other
    60                           ;        materials provided with the distribution. Publication is not required when
    61                           ;        this file is used in an embedded application.
    62                           ; 
    63                           ;     3. Microchip's name may not be used to endorse or promote products derived from th
      +                          is
    64                           ;        software without specific prior written permission.
    65                           ; 
    66                           ; THIS SOFTWARE IS PROVIDED BY MICROCHIP "AS IS" AND ANY EXPRESS OR IMPLIED WARRANTIES,
    67                           ; INCLUDING, BUT NOT LIMITED TO, THE IMPLIED WARRANTIES OF MERCHANTABILITY AND FITNESS F
      +                          OR
    68                           ; PURPOSE ARE DISCLAIMED.  IN NO EVENT SHALL MICROCHIP BE LIABLE FOR ANY DIRECT, INDIREC
      +                          T,
    69                           ; INCIDENTAL, SPECIAL, EXEMPLARY, OR CONSEQUENTIAL DAMAGES (INCLUDING BUT NOT LIMITED TO
    70                           ; PROCUREMENT OF SUBSTITUTE GOODS OR SERVICES; LOSS OF USE, DATA OR PROFITS; OR BUSINESS
    71                           ; INTERRUPTION) HOWSOEVER CAUSED AND ON ANY THEORY OF LIABILITY, WHETHER IN CONTRACT, ST
      +                          RICT
    72                           ; LIABILITY, OR TORT (INCLUDING NEGLIGENCE OR OTHERWISE) ARISING IN ANY WAY OUT OF THE U
      +                          SE OF
    73                           ; THIS SOFTWARE, EVEN IF ADVISED OF THE POSSIBILITY OF SUCH DAMAGE.
    74                           ; 
    75                           ; 
    76                           ; Code-generator required, PIC16F886 Definitions
    77                           ; 
    78                           ; SFR Addresses
    79     0004                     fsr             equ	4
    80     0004                     fsr0            equ	4
    81     0000                     indf            equ	0
    82     0000                     indf0           equ	0
    83     0002                     pc              equ	2
    84     0002                     pcl             equ	2
    85     000A                     pclath          equ	10
    86     0003                     status          equ	3
    87     0000                     INDF            equ	0	;# 
    88     0001                     TMR0            equ	1	;# 
    89     0002                     PCL             equ	2	;# 
    90     0003                     STATUS          equ	3	;# 
    91     0004                     FSR             equ	4	;# 
    92     0005                     PORTA           equ	5	;# 
    93     0006                     PORTB           equ	6	;# 
    94     0007                     PORTC           equ	7	;# 
    95     0009                     PORTE           equ	9	;# 
    96     000A                     PCLATH          equ	10	;# 
    97     000B                     INTCON          equ	11	;# 
    98     000C                     PIR1            equ	12	;# 
    99     000D                     PIR2            equ	13	;# 
   100     000E                     TMR1            equ	14	;# 
   101     000E                     TMR1L           equ	14	;# 
   102     000F                     TMR1H           equ	15	;# 
   103     0010                     T1CON           equ	16	;# 
   104     0011                     TMR2            equ	17	;# 
   105     0012                     T2CON           equ	18	;# 
   106     0013                     SSPBUF          equ	19	;# 
   107     0014                     SSPCON          equ	20	;# 
   108     0015                     CCPR1           equ	21	;# 
   109     0015                     CCPR1L          equ	21	;# 
   110     0016                     CCPR1H          equ	22	;# 
   111     0017                     CCP1CON         equ	23	;# 
   112     0018                     RCSTA           equ	24	;# 
   113     0019                     TXREG           equ	25	;# 
   114     001A                     RCREG           equ	26	;# 
   115     001B                     CCPR2           equ	27	;# 
   116     001B                     CCPR2L          equ	27	;# 
   117     001C                     CCPR2H          equ	28	;# 
   118     001D                     CCP2CON         equ	29	;# 
   119     001E                     ADRESH          equ	30	;# 
   120     001F                     ADCON0          equ	31	;# 
   121     0081                     OPTION_REG      equ	129	;# 
   122     0085                     TRISA           equ	133	;# 
   123     0086                     TRISB           equ	134	;# 
   124     0087                     TRISC           equ	135	;# 
   125     0089                     TRISE           equ	137	;# 
   126     008C                     PIE1            equ	140	;# 
   127     008D                     PIE2            equ	141	;# 
   128     008E                     PCON            equ	142	;# 
   129     008F                     OSCCON          equ	143	;# 
   130     0090                     OSCTUNE         equ	144	;# 
   131     0091                     SSPCON2         equ	145	;# 
   132     0092                     PR2             equ	146	;# 
   133     0093                     SSPADD          equ	147	;# 
   134     0093                     SSPMSK          equ	147	;# 
   135     0093                     MSK             equ	147	;# 
   136     0094                     SSPSTAT         equ	148	;# 
   137     0095                     WPUB            equ	149	;# 
   138     0096                     IOCB            equ	150	;# 
   139     0097                     VRCON           equ	151	;# 
   140     0098                     TXSTA           equ	152	;# 
   141     0099                     SPBRG           equ	153	;# 
   142     009A                     SPBRGH          equ	154	;# 
   143     009B                     PWM1CON         equ	155	;# 
   144     009C                     ECCPAS          equ	156	;# 
   145     009D                     PSTRCON         equ	157	;# 
   146     009E                     ADRESL          equ	158	;# 
   147     009F                     ADCON1          equ	159	;# 
   148     0105                     WDTCON          equ	261	;# 
   149     0107                     CM1CON0         equ	263	;# 
   150     0108                     CM2CON0         equ	264	;# 
   151     0109                     CM2CON1         equ	265	;# 
   152     010C                     EEDATA          equ	268	;# 
   153     010C                     EEDAT           equ	268	;# 
   154     010D                     EEADR           equ	269	;# 
   155     010E                     EEDATH          equ	270	;# 
   156     010F                     EEADRH          equ	271	;# 
   157     0185                     SRCON           equ	389	;# 
   158     0187                     BAUDCTL         equ	391	;# 
   159     0188                     ANSEL           equ	392	;# 
   160     0189                     ANSELH          equ	393	;# 
   161     018C                     EECON1          equ	396	;# 
   162     018D                     EECON2          equ	397	;# 
   163     0000                     INDF            equ	0	;# 
   164     0001                     TMR0            equ	1	;# 
   165     0002                     PCL             equ	2	;# 
   166     0003                     STATUS          equ	3	;# 
   167     0004                     FSR             equ	4	;# 
   168     0005                     PORTA           equ	5	;# 
   169     0006                     PORTB           equ	6	;# 
   170     0007                     PORTC           equ	7	;# 
   171     0009                     PORTE           equ	9	;# 
   172     000A                     PCLATH          equ	10	;# 
   173     000B                     INTCON          equ	11	;# 
   174     000C                     PIR1            equ	12	;# 
   175     000D                     PIR2            equ	13	;# 
   176     000E                     TMR1            equ	14	;# 
   177     000E                     TMR1L           equ	14	;# 
   178     000F                     TMR1H           equ	15	;# 
   179     0010                     T1CON           equ	16	;# 
   180     0011                     TMR2            equ	17	;# 
   181     0012                     T2CON           equ	18	;# 
   182     0013                     SSPBUF          equ	19	;# 
   183     0014                     SSPCON          equ	20	;# 
   184     0015                     CCPR1           equ	21	;# 
   185     0015                     CCPR1L          equ	21	;# 
   186     0016                     CCPR1H          equ	22	;# 
   187     0017                     CCP1CON         equ	23	;# 
   188     0018                     RCSTA           equ	24	;# 
   189     0019                     TXREG           equ	25	;# 
   190     001A                     RCREG           equ	26	;# 
   191     001B                     CCPR2           equ	27	;# 
   192     001B                     CCPR2L          equ	27	;# 
   193     001C                     CCPR2H          equ	28	;# 
   194     001D                     CCP2CON         equ	29	;# 
   195     001E                     ADRESH          equ	30	;# 
   196     001F                     ADCON0          equ	31	;# 
   197     0081                     OPTION_REG      equ	129	;# 
   198     0085                     TRISA           equ	133	;# 
   199     0086                     TRISB           equ	134	;# 
   200     0087                     TRISC           equ	135	;# 
   201     0089                     TRISE           equ	137	;# 
   202     008C                     PIE1            equ	140	;# 
   203     008D                     PIE2            equ	141	;# 
   204     008E                     PCON            equ	142	;# 
   205     008F                     OSCCON          equ	143	;# 
   206     0090                     OSCTUNE         equ	144	;# 
   207     0091                     SSPCON2         equ	145	;# 
   208     0092                     PR2             equ	146	;# 
   209     0093                     SSPADD          equ	147	;# 
   210     0093                     SSPMSK          equ	147	;# 
   211     0093                     MSK             equ	147	;# 
   212     0094                     SSPSTAT         equ	148	;# 
   213     0095                     WPUB            equ	149	;# 
   214     0096                     IOCB            equ	150	;# 
   215     0097                     VRCON           equ	151	;# 
   216     0098                     TXSTA           equ	152	;# 
   217     0099                     SPBRG           equ	153	;# 
   218     009A                     SPBRGH          equ	154	;# 
   219     009B                     PWM1CON         equ	155	;# 
   220     009C                     ECCPAS          equ	156	;# 
   221     009D                     PSTRCON         equ	157	;# 
   222     009E                     ADRESL          equ	158	;# 
   223     009F                     ADCON1          equ	159	;# 
   224     0105                     WDTCON          equ	261	;# 
   225     0107                     CM1CON0         equ	263	;# 
   226     0108                     CM2CON0         equ	264	;# 
   227     0109                     CM2CON1         equ	265	;# 
   228     010C                     EEDATA          equ	268	;# 
   229     010C                     EEDAT           equ	268	;# 
   230     010D                     EEADR           equ	269	;# 
   231     010E                     EEDATH          equ	270	;# 
   232     010F                     EEADRH          equ	271	;# 
   233     0185                     SRCON           equ	389	;# 
   234     0187                     BAUDCTL         equ	391	;# 
   235     0188                     ANSEL           equ	392	;# 
   236     0189                     ANSELH          equ	393	;# 
   237     018C                     EECON1          equ	396	;# 
   238     018D                     EECON2          equ	397	;# 
   239                           
   240                           	psect	idataBANK2
   241     080C                     __pidataBANK2:
   242                           
   243                           ;initializer for _modes
   244     080C  3400               	retlw	0
   245     080D  3400               	retlw	0
   246     080E  3468               	retlw	104
   247     080F  3441               	retlw	65
   248     0810  34AE               	retlw	174
   249     0811  3481               	retlw	129
   250     0812  342C               	retlw	44
   251     0813  34F5               	retlw	245
   252     0814  3400               	retlw	0
   253     0815  3400               	retlw	0
   254     0816  3478               	retlw	120
   255     0817  3441               	retlw	65
   256     0818  34FA               	retlw	250
   257     0819  346C               	retlw	108
   258     081A  3401               	retlw	1
   259     081B  349E               	retlw	158
   260     081C  3400               	retlw	0
   261     081D  3400               	retlw	0
   262     081E  3484               	retlw	132
   263     081F  3441               	retlw	65
   264     0820  343C               	retlw	60
   265     0821  3481               	retlw	129
   266     0822  343E               	retlw	62
   267     0823  3457               	retlw	87
   268                           
   269                           ;initializer for _SS2_BCD
   270     0824  3477               	retlw	119
   271     0825  3400               	retlw	0
   272     0826  3414               	retlw	20
   273     0827  3400               	retlw	0
   274     0828  34B3               	retlw	179
   275     0829  3400               	retlw	0
   276     082A  34B6               	retlw	182
   277     082B  3400               	retlw	0
   278     082C  34D4               	retlw	212
   279     082D  3400               	retlw	0
   280     082E  34E6               	retlw	230
   281     082F  3400               	retlw	0
   282     0830  34C7               	retlw	199
   283     0831  3400               	retlw	0
   284     0832  3434               	retlw	52
   285     0833  3400               	retlw	0
   286     0834  34F7               	retlw	247
   287     0835  3400               	retlw	0
   288     0836  34F4               	retlw	244
   289     0837  3400               	retlw	0
   290                           
   291                           	psect	idataBANK3
   292     10F4                     __pidataBANK3:
   293                           
   294                           ;initializer for _SS1_BCD
   295     10F4  34EE               	retlw	238
   296     10F5  3400               	retlw	0
   297     10F6  3482               	retlw	130
   298     10F7  3400               	retlw	0
   299     10F8  34DC               	retlw	220
   300     10F9  3400               	retlw	0
   301     10FA  34D6               	retlw	214
   302     10FB  3400               	retlw	0
   303     10FC  34B2               	retlw	178
   304     10FD  3400               	retlw	0
   305     10FE  3476               	retlw	118
   306     10FF  3400               	retlw	0
   307     1100  343E               	retlw	62
   308     1101  3400               	retlw	0
   309     1102  34C2               	retlw	194
   310     1103  3400               	retlw	0
   311     1104  34FE               	retlw	254
   312     1105  3400               	retlw	0
   313     1106  34F2               	retlw	242
   314     1107  3400               	retlw	0
   315                           
   316                           ;initializer for _selected_voltage
   317     1108  3400               	retlw	0
   318     1109  3400               	retlw	0
   319     110A  3468               	retlw	104
   320     110B  3441               	retlw	65
   321                           
   322                           ;initializer for _duty
   323     110C  3405               	retlw	5
   324     110D  3400               	retlw	0
   325                           
   326                           ;initializer for main@prev_limit
   327     110E  3401               	retlw	1
   328                           
   329                           ;initializer for _last_limit
   330     110F  3401               	retlw	1
   331     000B                     _INTCONbits     set	11
   332     0001                     _TMR0           set	1
   333     000E                     _TMR1L          set	14
   334     000F                     _TMR1H          set	15
   335     0010                     _T1CON          set	16
   336     0006                     _PORTB          set	6
   337     001E                     _ADRESH         set	30
   338     001F                     _ADCON0         set	31
   339     001F                     _ADCON0bits     set	31
   340     0039                     _RC1            set	57
   341     0038                     _RC0            set	56
   342     002D                     _RA5            set	45
   343     003A                     _RC2            set	58
   344     005A                     _TMR0IF         set	90
   345     005F                     _GIE            set	95
   346     005E                     _PEIE           set	94
   347     0060                     _TMR1IF         set	96
   348     002C                     _RA4            set	44
   349     003B                     _RC3            set	59
   350     002F                     _RA7            set	47
   351     002E                     _RA6            set	46
   352     003D                     _RC5            set	61
   353     003E                     _RC6            set	62
   354     003F                     _RC7            set	63
   355     003C                     _RC4            set	60
   356     00F9                     _GO_nDONE       set	249
   357     00F8                     _ADON           set	248
   358     0081                     _OPTION_REG     set	129
   359     0086                     _TRISB          set	134
   360     0087                     _TRISCbits      set	135
   361     009E                     _ADRESL         set	158
   362     009F                     _ADCON1bits     set	159
   363     0085                     _TRISAbits      set	133
   364     0460                     _TMR1IE         set	1120
   365     0189                     _ANSELH         set	393
   366     0188                     _ANSEL          set	392
   367                           
   368                           	psect	cinit
   369     000F                     start_initialization:	
   370                           ; #config settings
   371                           
   372     000F                     __initialization:
   373                           
   374                           ; Initialize objects allocated to BANK3
   375     000F  1783               	bsf	3,7	;select IRP bank2
   376     0010  30CD               	movlw	low (__pdataBANK3+28)
   377     0011  00FD               	movwf	btemp+-1
   378     0012  3010               	movlw	high __pidataBANK3
   379     0013  00FE               	movwf	btemp
   380     0014  30F4               	movlw	low __pidataBANK3
   381     0015  00FF               	movwf	btemp+1
   382     0016  30B1               	movlw	low __pdataBANK3
   383     0017  0084               	movwf	4
   384     0018  120A  118A  27F1  120A  118A  	fcall	init_ram0
   385                           
   386                           ; Initialize objects allocated to BANK2
   387     001D  303C               	movlw	low (__pdataBANK2+44)
   388     001E  00FD               	movwf	btemp+-1
   389     001F  3008               	movlw	high __pidataBANK2
   390     0020  00FE               	movwf	btemp
   391     0021  300C               	movlw	low __pidataBANK2
   392     0022  00FF               	movwf	btemp+1
   393     0023  3010               	movlw	low __pdataBANK2
   394     0024  0084               	movwf	4
   395     0025  120A  118A  27F1  120A  118A  	fcall	init_ram0
   396                           
   397                           ; Clear objects allocated to BANK3
   398     002A  3090               	movlw	low __pbssBANK3
   399     002B  0084               	movwf	4
   400     002C  30B1               	movlw	low (__pbssBANK3+33)
   401     002D  160A  118A  20AF  120A  118A  	fcall	clear_ram0
   402                           
   403                           ; Clear objects allocated to BANK1
   404     0032  1683               	bsf	3,5	;RP0=1, select bank1
   405     0033  1303               	bcf	3,6	;RP1=0, select bank1
   406     0034  01EB               	clrf	__pbssBANK1& (0+127)
   407     0035  01EC               	clrf	(__pbssBANK1+1)& (0+127)
   408     0036  01ED               	clrf	(__pbssBANK1+2)& (0+127)
   409                           
   410                           ; Clear objects allocated to COMMON
   411     0037  01F8               	clrf	__pbssCOMMON& (0+127)
   412     0038  01F9               	clrf	(__pbssCOMMON+1)& (0+127)
   413     0039  01FA               	clrf	(__pbssCOMMON+2)& (0+127)
   414     003A  01FB               	clrf	(__pbssCOMMON+3)& (0+127)
   415     003B  01FC               	clrf	(__pbssCOMMON+4)& (0+127)
   416     003C  01FD               	clrf	(__pbssCOMMON+5)& (0+127)
   417     003D                     end_of_initialization:	
   418                           ;End of C runtime variable initialization code
   419                           
   420     003D                     __end_of__initialization:
   421     003D  0183               	clrf	3
   422     003E  120A  118A  2841   	ljmp	_main	;jump to C main() function
   423                           
   424                           	psect	bssCOMMON
   425     0078                     __pbssCOMMON:
   426     0078                     _counter_pwm:
   427     0078                     	ds	2
   428     007A                     main@toggle:
   429     007A                     	ds	1
   430     007B                     _last_up:
   431     007B                     	ds	1
   432     007C                     _stage:
   433     007C                     	ds	1
   434     007D                     _selected_index:
   435     007D                     	ds	1
   436                           
   437                           	psect	bssBANK1
   438     00EB                     __pbssBANK1:
   439     00EB                     _direction:
   440     00EB                     	ds	1
   441     00EC                     _v_index:
   442     00EC                     	ds	1
   443     00ED                     _mode:
   444     00ED                     	ds	1
   445                           
   446                           	psect	bssBANK3
   447     0190                     __pbssBANK3:
   448     0190                     _ref_vol:
   449     0190                     	ds	4
   450     0194                     _tar_vol:
   451     0194                     	ds	4
   452     0198                     _voltage2:
   453     0198                     	ds	4
   454     019C                     _current_limit:
   455     019C                     	ds	4
   456     01A0                     main@stopped:
   457     01A0                     	ds	1
   458     01A1                     main@relay_state:
   459     01A1                     	ds	1
   460     01A2                     main@set_state:
   461     01A2                     	ds	1
   462     01A3                     ISR@s4:
   463     01A3                     	ds	1
   464     01A4                     ISR@s3:
   465     01A4                     	ds	1
   466     01A5                     ISR@s2:
   467     01A5                     	ds	1
   468     01A6                     ISR@s1:
   469     01A6                     	ds	1
   470     01A7                     _limit_step:
   471     01A7                     	ds	1
   472     01A8                     _limit_mode:
   473     01A8                     	ds	1
   474     01A9                     _outputOk:
   475     01A9                     	ds	1
   476     01AA                     _last_volt:
   477     01AA                     	ds	1
   478     01AB                     _last_down:
   479     01AB                     	ds	1
   480     01AC                     _last_set:
   481     01AC                     	ds	1
   482     01AD                     _ts4:
   483     01AD                     	ds	1
   484     01AE                     _ts3:
   485     01AE                     	ds	1
   486     01AF                     _ts2:
   487     01AF                     	ds	1
   488     01B0                     _ts1:
   489     01B0                     	ds	1
   490                           
   491                           	psect	dataBANK3
   492     01B1                     __pdataBANK3:
   493     01B1                     _SS1_BCD:
   494     01B1                     	ds	20
   495     01C5                     _selected_voltage:
   496     01C5                     	ds	4
   497     01C9                     _duty:
   498     01C9                     	ds	2
   499     01CB                     main@prev_limit:
   500     01CB                     	ds	1
   501     01CC                     _last_limit:
   502     01CC                     	ds	1
   503                           
   504                           	psect	dataBANK2
   505     0110                     __pdataBANK2:
   506     0110                     _modes:
   507     0110                     	ds	24
   508     0128                     _SS2_BCD:
   509     0128                     	ds	20
   510                           
   511                           	psect	inittext
   512     07ED                     init_fetch0:	
   513                           ;	Called with low address in FSR and high address in W
   514                           
   515     07ED  087E               	movf	btemp,w
   516     07EE  008A               	movwf	10
   517     07EF  087F               	movf	btemp+1,w
   518     07F0  0082               	movwf	2
   519     07F1                     init_ram0:	
   520                           ;Called with:
   521                           ;	high address of idata address in btemp 
   522                           ;	low address of idata address in btemp+1 
   523                           ;	low address of data in FSR
   524                           ;	high address + 1 of data in btemp-1
   525                           
   526     07F1  120A  118A  27ED  120A  118A  	fcall	init_fetch0
   527     07F6  0080               	movwf	0
   528     07F7  0A84               	incf	4,f
   529     07F8  0804               	movf	4,w
   530     07F9  067D               	xorwf	btemp+-1,w
   531     07FA  1903               	btfsc	3,2
   532     07FB  3400               	retlw	0
   533     07FC  0AFF               	incf	btemp+1,f
   534     07FD  1903               	btfsc	3,2
   535     07FE  0AFE               	incf	btemp,f
   536     07FF  2FF1               	goto	init_ram0
   537                           
   538                           	psect	clrtext
   539     10AF                     clear_ram0:	
   540                           ;	Called with FSR containing the base address, and
   541                           ;	W with the last address+1
   542                           
   543     10AF  0064               	clrwdt	;clear the watchdog before getting into this loop
   544     10B0                     clrloop0:
   545     10B0  0180               	clrf	0	;clear RAM location pointed to by FSR
   546     10B1  0A84               	incf	4,f	;increment pointer
   547     10B2  0604               	xorwf	4,w	;XOR with final address
   548     10B3  1903               	btfsc	3,2	;have we reached the end yet?
   549     10B4  3400               	retlw	0	;all done for this memory range, return
   550     10B5  0604               	xorwf	4,w	;XOR again to restore value
   551     10B6  28B0               	goto	clrloop0	;do the next byte
   552                           
   553                           	psect	cstackBANK3
   554     01CD                     __pcstackBANK3:
   555     01CD                     splitFloat@v_one:
   556                           
   557                           ; 2 bytes @ 0x0
   558     01CD                     	ds	2
   559     01CF                     splitFloat@mv_hun:
   560                           
   561                           ; 2 bytes @ 0x2
   562     01CF                     	ds	2
   563     01D1                     splitFloat@mv_ten:
   564                           
   565                           ; 2 bytes @ 0x4
   566     01D1                     	ds	2
   567     01D3                     splitFloat@v_ten:
   568                           
   569                           ; 2 bytes @ 0x6
   570     01D3                     	ds	2
   571     01D5                     splitFloat@v_one_295:
   572                           
   573                           ; 2 bytes @ 0x8
   574     01D5                     	ds	2
   575     01D7                     splitFloat@mv_hun_296:
   576                           
   577                           ; 2 bytes @ 0xA
   578     01D7                     	ds	2
   579     01D9                     splitFloat@mv_ten_297:
   580                           
   581                           ; 2 bytes @ 0xC
   582     01D9                     	ds	2
   583     01DB                     _splitFloat$959:
   584                           
   585                           ; 4 bytes @ 0xE
   586     01DB                     	ds	4
   587                           
   588                           	psect	cstackBANK1
   589     00A0                     __pcstackBANK1:
   590     00A0                     ?___awmod:
   591     00A0                     ?___fldiv:	
   592                           ; 2 bytes @ 0x0
   593                           
   594     00A0                     ___awmod@divisor:	
   595                           ; 4 bytes @ 0x0
   596                           
   597     00A0                     ___fldiv@a:	
   598                           ; 2 bytes @ 0x0
   599                           
   600                           
   601                           ; 4 bytes @ 0x0
   602     00A0                     	ds	2
   603     00A2                     ___awmod@dividend:
   604                           
   605                           ; 2 bytes @ 0x2
   606     00A2                     	ds	2
   607     00A4                     ___fldiv@b:
   608                           
   609                           ; 4 bytes @ 0x4
   610     00A4                     	ds	4
   611     00A8                     ??___fldiv:
   612                           
   613                           ; 1 bytes @ 0x8
   614     00A8                     	ds	5
   615     00AD                     ___fldiv@rem:
   616                           
   617                           ; 4 bytes @ 0xD
   618     00AD                     	ds	4
   619     00B1                     ___fldiv@sign:
   620                           
   621                           ; 1 bytes @ 0x11
   622     00B1                     	ds	1
   623     00B2                     ___fldiv@new_exp:
   624                           
   625                           ; 2 bytes @ 0x12
   626     00B2                     	ds	2
   627     00B4                     ___fldiv@grs:
   628                           
   629                           ; 4 bytes @ 0x14
   630     00B4                     	ds	4
   631     00B8                     ___fldiv@bexp:
   632                           
   633                           ; 1 bytes @ 0x18
   634     00B8                     	ds	1
   635     00B9                     ___fldiv@aexp:
   636                           
   637                           ; 1 bytes @ 0x19
   638     00B9                     	ds	1
   639     00BA                     ?_getVoltage:
   640     00BA                     ?_getAmps:	
   641                           ; 4 bytes @ 0x1A
   642                           
   643                           
   644                           ; 4 bytes @ 0x1A
   645     00BA                     	ds	4
   646     00BE                     ??_getVoltage:
   647     00BE                     ??_getAmps:	
   648                           ; 1 bytes @ 0x1E
   649                           
   650                           
   651                           ; 1 bytes @ 0x1E
   652     00BE                     	ds	4
   653     00C2                     getVoltage@adc:
   654     00C2                     getAmps@adc:	
   655                           ; 2 bytes @ 0x22
   656                           
   657                           
   658                           ; 2 bytes @ 0x22
   659     00C2                     	ds	2
   660     00C4                     getVoltage@ch:
   661     00C4                     getAmps@ch:	
   662                           ; 1 bytes @ 0x24
   663                           
   664                           
   665                           ; 1 bytes @ 0x24
   666     00C4                     	ds	1
   667     00C5                     getVoltage@sum:
   668     00C5                     getAmps@sum:	
   669                           ; 4 bytes @ 0x25
   670                           
   671                           
   672                           ; 4 bytes @ 0x25
   673     00C5                     	ds	4
   674     00C9                     getVoltage@i:
   675     00C9                     getAmps@i:	
   676                           ; 2 bytes @ 0x29
   677                           
   678                           
   679                           ; 2 bytes @ 0x29
   680     00C9                     	ds	2
   681     00CB                     ?___flge:
   682     00CB                     ___flge@ff1:	
   683                           ; 1 bit 
   684                           
   685                           
   686                           ; 4 bytes @ 0x2B
   687     00CB                     	ds	4
   688     00CF                     ___flge@ff2:
   689                           
   690                           ; 4 bytes @ 0x2F
   691     00CF                     	ds	4
   692     00D3                     ??___flge:
   693                           
   694                           ; 1 bytes @ 0x33
   695     00D3                     	ds	4
   696     00D7                     ?_splitFloat:
   697     00D7                     splitFloat@val:	
   698                           ; 1 bytes @ 0x37
   699                           
   700                           
   701                           ; 4 bytes @ 0x37
   702     00D7                     	ds	4
   703     00DB                     splitFloat@d_1000:
   704                           
   705                           ; 1 bytes @ 0x3B
   706     00DB                     	ds	1
   707     00DC                     splitFloat@d_100:
   708                           
   709                           ; 1 bytes @ 0x3C
   710     00DC                     	ds	1
   711     00DD                     splitFloat@d_10:
   712                           
   713                           ; 1 bytes @ 0x3D
   714     00DD                     	ds	1
   715     00DE                     splitFloat@d_1:
   716                           
   717                           ; 1 bytes @ 0x3E
   718     00DE                     	ds	1
   719     00DF                     ??_splitFloat:
   720                           
   721                           ; 1 bytes @ 0x3F
   722     00DF                     	ds	2
   723     00E1                     ??_main:
   724                           
   725                           ; 1 bytes @ 0x41
   726     00E1                     	ds	3
   727     00E4                     main@startup_mode:
   728                           
   729                           ; 1 bytes @ 0x44
   730     00E4                     	ds	1
   731     00E5                     main@limit_active:
   732                           
   733                           ; 1 bytes @ 0x45
   734     00E5                     	ds	1
   735     00E6                     main@error:
   736                           
   737                           ; 4 bytes @ 0x46
   738     00E6                     	ds	4
   739     00EA                     main@system_done:
   740                           
   741                           ; 1 bytes @ 0x4A
   742     00EA                     	ds	1
   743                           
   744                           	psect	cstackCOMMON
   745     0070                     __pcstackCOMMON:
   746     0070                     ?_ADC_Init:
   747     0070                     ?_gpio_conf:	
   748                           ; 1 bytes @ 0x0
   749                           
   750     0070                     ?_timer_conf:	
   751                           ; 1 bytes @ 0x0
   752                           
   753     0070                     ?_custom_display:	
   754                           ; 1 bytes @ 0x0
   755                           
   756     0070                     ?_ISR:	
   757                           ; 1 bytes @ 0x0
   758                           
   759     0070                     ?_motor_stop:	
   760                           ; 1 bytes @ 0x0
   761                           
   762     0070                     ?_motor_forward:	
   763                           ; 1 bytes @ 0x0
   764                           
   765     0070                     ?_motor_reverse:	
   766                           ; 1 bytes @ 0x0
   767                           
   768     0070                     ?_main:	
   769                           ; 1 bytes @ 0x0
   770                           
   771     0070                     custom_display@two:	
   772                           ; 1 bytes @ 0x0
   773                           
   774                           
   775                           ; 1 bytes @ 0x0
   776     0070                     	ds	1
   777     0071                     custom_display@three:
   778                           
   779                           ; 1 bytes @ 0x1
   780     0071                     	ds	1
   781     0072                     custom_display@four:
   782                           
   783                           ; 1 bytes @ 0x2
   784     0072                     	ds	1
   785     0073                     ??_custom_display:
   786                           
   787                           ; 1 bytes @ 0x3
   788     0073                     	ds	2
   789     0075                     custom_display@one:
   790                           
   791                           ; 1 bytes @ 0x5
   792     0075                     	ds	1
   793     0076                     ??_ISR:
   794                           
   795                           ; 1 bytes @ 0x6
   796     0076                     	ds	2
   797                           
   798                           	psect	cstackBANK0
   799     0020                     __pcstackBANK0:
   800     0020                     ?__Umul8_16:
   801     0020                     ?_readAdc:	
   802                           ; 2 bytes @ 0x0
   803                           
   804     0020                     ?___fladd:	
   805                           ; 2 bytes @ 0x0
   806                           
   807     0020                     __Umul8_16@multiplicand:	
   808                           ; 4 bytes @ 0x0
   809                           
   810     0020                     ___fladd@b:	
   811                           ; 1 bytes @ 0x0
   812                           
   813     0020                     ??_ADC_Init:	
   814                           ; 4 bytes @ 0x0
   815                           
   816     0020                     ??_gpio_conf:	
   817                           ; 1 bytes @ 0x0
   818                           
   819     0020                     ??_timer_conf:	
   820                           ; 1 bytes @ 0x0
   821                           
   822     0020                     ??_motor_stop:	
   823                           ; 1 bytes @ 0x0
   824                           
   825     0020                     ??_motor_forward:	
   826                           ; 1 bytes @ 0x0
   827                           
   828     0020                     ??_motor_reverse:	
   829                           ; 1 bytes @ 0x0
   830                           
   831                           
   832                           ; 1 bytes @ 0x0
   833     0020                     	ds	2
   834     0022                     ??__Umul8_16:
   835     0022                     ??_readAdc:	
   836                           ; 1 bytes @ 0x2
   837                           
   838                           
   839                           ; 1 bytes @ 0x2
   840     0022                     	ds	1
   841     0023                     readAdc@ch:
   842                           
   843                           ; 1 bytes @ 0x3
   844     0023                     	ds	1
   845     0024                     __Umul8_16@product:
   846     0024                     ___fladd@a:	
   847                           ; 2 bytes @ 0x4
   848                           
   849                           
   850                           ; 4 bytes @ 0x4
   851     0024                     	ds	2
   852     0026                     __Umul8_16@word_mpld:
   853                           
   854                           ; 2 bytes @ 0x6
   855     0026                     	ds	2
   856     0028                     __Umul8_16@multiplier:
   857     0028                     ??___fladd:	
   858                           ; 1 bytes @ 0x8
   859                           
   860                           
   861                           ; 1 bytes @ 0x8
   862     0028                     	ds	8
   863     0030                     ___fladd@signs:
   864                           
   865                           ; 1 bytes @ 0x10
   866     0030                     	ds	1
   867     0031                     ___fladd@aexp:
   868                           
   869                           ; 1 bytes @ 0x11
   870     0031                     	ds	1
   871     0032                     ___fladd@bexp:
   872                           
   873                           ; 1 bytes @ 0x12
   874     0032                     	ds	1
   875     0033                     ___fladd@grs:
   876                           
   877                           ; 1 bytes @ 0x13
   878     0033                     	ds	1
   879     0034                     ?___fltol:
   880     0034                     ___fltol@f1:	
   881                           ; 4 bytes @ 0x14
   882                           
   883                           
   884                           ; 4 bytes @ 0x14
   885     0034                     	ds	4
   886     0038                     ??___fltol:
   887                           
   888                           ; 1 bytes @ 0x18
   889     0038                     	ds	4
   890     003C                     ___fltol@sign1:
   891                           
   892                           ; 1 bytes @ 0x1C
   893     003C                     	ds	1
   894     003D                     ___fltol@exp1:
   895                           
   896                           ; 1 bytes @ 0x1D
   897     003D                     	ds	1
   898     003E                     ?___awdiv:
   899     003E                     ?___xxtofl:	
   900                           ; 2 bytes @ 0x1E
   901                           
   902     003E                     ___awdiv@divisor:	
   903                           ; 4 bytes @ 0x1E
   904                           
   905     003E                     ___xxtofl@val:	
   906                           ; 2 bytes @ 0x1E
   907                           
   908                           
   909                           ; 4 bytes @ 0x1E
   910     003E                     	ds	2
   911     0040                     ___awdiv@dividend:
   912                           
   913                           ; 2 bytes @ 0x20
   914     0040                     	ds	2
   915     0042                     ___awdiv@counter:
   916     0042                     ??___awdiv:	
   917                           ; 1 bytes @ 0x22
   918                           
   919     0042                     ??___xxtofl:	
   920                           ; 1 bytes @ 0x22
   921                           
   922                           
   923                           ; 1 bytes @ 0x22
   924     0042                     	ds	1
   925     0043                     ___awdiv@sign:
   926                           
   927                           ; 1 bytes @ 0x23
   928     0043                     	ds	1
   929     0044                     ___awdiv@quotient:
   930                           
   931                           ; 2 bytes @ 0x24
   932     0044                     	ds	2
   933     0046                     ___xxtofl@sign:
   934                           
   935                           ; 1 bytes @ 0x26
   936     0046                     	ds	1
   937     0047                     ___xxtofl@exp:
   938                           
   939                           ; 1 bytes @ 0x27
   940     0047                     	ds	1
   941     0048                     ___xxtofl@arg:
   942                           
   943                           ; 4 bytes @ 0x28
   944     0048                     	ds	4
   945     004C                     ?___flsub:
   946     004C                     ___flsub@a:	
   947                           ; 4 bytes @ 0x2C
   948                           
   949                           
   950                           ; 4 bytes @ 0x2C
   951     004C                     	ds	4
   952     0050                     ___flsub@b:
   953                           
   954                           ; 4 bytes @ 0x30
   955     0050                     	ds	4
   956     0054                     ?___flmul:
   957     0054                     ___flmul@b:	
   958                           ; 4 bytes @ 0x34
   959                           
   960     0054                     ??___flsub:	
   961                           ; 4 bytes @ 0x34
   962                           
   963                           
   964                           ; 1 bytes @ 0x34
   965     0054                     	ds	4
   966     0058                     ___flmul@a:
   967                           
   968                           ; 4 bytes @ 0x38
   969     0058                     	ds	4
   970     005C                     ??___flmul:
   971                           
   972                           ; 1 bytes @ 0x3C
   973     005C                     	ds	5
   974     0061                     ___flmul@sign:
   975                           
   976                           ; 1 bytes @ 0x41
   977     0061                     	ds	1
   978     0062                     ___flmul@grs:
   979                           
   980                           ; 4 bytes @ 0x42
   981     0062                     	ds	4
   982     0066                     ___flmul@aexp:
   983                           
   984                           ; 1 bytes @ 0x46
   985     0066                     	ds	1
   986     0067                     ___flmul@bexp:
   987                           
   988                           ; 1 bytes @ 0x47
   989     0067                     	ds	1
   990     0068                     ___flmul@prod:
   991                           
   992                           ; 4 bytes @ 0x48
   993     0068                     	ds	4
   994     006C                     ___flmul@temp:
   995                           
   996                           ; 2 bytes @ 0x4C
   997     006C                     	ds	2
   998     006E                     ___awmod@counter:
   999     006E                     ??___awmod:	
  1000                           ; 1 bytes @ 0x4E
  1001                           
  1002                           
  1003                           ; 1 bytes @ 0x4E
  1004     006E                     	ds	1
  1005     006F                     ___awmod@sign:
  1006                           
  1007                           ; 1 bytes @ 0x4F
  1008     006F                     	ds	1
  1009                           
  1010                           	psect	maintext
  1011     0041                     __pmaintext:	
  1012 ;;
  1013 ;;Main: autosize = 0, tempsize = 3, incstack = 0, save=0
  1014 ;;
  1015 ;; *************** function _main *****************
  1016 ;; Defined at:
  1017 ;;		line 369 in file "main.c"
  1018 ;; Parameters:    Size  Location     Type
  1019 ;;		None
  1020 ;; Auto vars:     Size  Location     Type
  1021 ;;  error           4   70[BANK1 ] float 
  1022 ;;  system_done     1   74[BANK1 ] unsigned char 
  1023 ;;  limit_active    1   69[BANK1 ] unsigned char 
  1024 ;;  startup_mode    1   68[BANK1 ] unsigned char 
  1025 ;; Return value:  Size  Location     Type
  1026 ;;                  1    wreg      void 
  1027 ;; Registers used:
  1028 ;;		wreg, fsr0l, fsr0h, status,2, status,0, pclath, btemp1, cstack
  1029 ;; Tracked objects:
  1030 ;;		On entry : B00/0
  1031 ;;		On exit  : 0/0
  1032 ;;		Unchanged: 0/0
  1033 ;; Data sizes:     COMMON   BANK0   BANK1   BANK3   BANK2
  1034 ;;      Params:         0       0       0       0       0
  1035 ;;      Locals:         0       0       7       0       0
  1036 ;;      Temps:          0       0       3       0       0
  1037 ;;      Totals:         0       0      10       0       0
  1038 ;;Total ram usage:       10 bytes
  1039 ;; Hardware stack levels required when called: 5
  1040 ;; This function calls:
  1041 ;;		_ADC_Init
  1042 ;;		___flge
  1043 ;;		___flsub
  1044 ;;		_getAmps
  1045 ;;		_getVoltage
  1046 ;;		_gpio_conf
  1047 ;;		_motor_forward
  1048 ;;		_motor_reverse
  1049 ;;		_motor_stop
  1050 ;;		_splitFloat
  1051 ;;		_timer_conf
  1052 ;; This function is called by:
  1053 ;;		Startup code after reset
  1054 ;; This function uses a non-reentrant model
  1055 ;;
  1056                           
  1057     0041                     _main:	
  1058                           ;psect for function _main
  1059                           
  1060     0041                     l2849:	
  1061                           ;incstack = 0
  1062                           ; Regs used in _main: [wreg-fsr0h+status,2+status,0+pclath+btemp1+cstack]
  1063                           
  1064                           
  1065                           ;main.c: 373:     gpio_conf();
  1066     0041  160A  118A  20D9  120A  118A  	fcall	_gpio_conf
  1067                           
  1068                           ;main.c: 374:     timer_conf();
  1069     0046  160A  118A  20C1  120A  118A  	fcall	_timer_conf
  1070     004B                     l2851:
  1071                           
  1072                           ;main.c: 375:     ADC_Init();
  1073     004B  160A  118A  2110  120A  118A  	fcall	_ADC_Init
  1074     0050                     l2853:
  1075                           
  1076                           ;main.c: 377:     ts1 = 0X6E;
  1077     0050  306E               	movlw	110
  1078     0051  1683               	bsf	3,5	;RP0=1, select bank3
  1079     0052  1703               	bsf	3,6	;RP1=1, select bank3
  1080     0053  00B0               	movwf	_ts1^(0+384)	;volatile
  1081     0054                     l2855:
  1082                           
  1083                           ;main.c: 378:     ts2 = 0X57;
  1084     0054  3057               	movlw	87
  1085     0055  00AF               	movwf	_ts2^(0+384)	;volatile
  1086     0056                     l2857:
  1087                           
  1088                           ;main.c: 379:     ts3 = 0X6C;
  1089     0056  306C               	movlw	108
  1090     0057  00AE               	movwf	_ts3^(0+384)	;volatile
  1091     0058                     l2859:
  1092                           
  1093                           ;main.c: 380:     ts4 = 0x00;
  1094     0058  01AD               	clrf	_ts4^(0+384)	;volatile
  1095     0059                     l2861:
  1096                           
  1097                           ;main.c: 381:     outputOk = 1;
  1098     0059  3001               	movlw	1
  1099     005A  00A9               	movwf	_outputOk^(0+384)
  1100     005B                     l2863:
  1101                           
  1102                           ;main.c: 382:     _delay((unsigned long)((200)*(8000000/4000.0)));
  1103     005B  3003               	movlw	3
  1104     005C  1683               	bsf	3,5	;RP0=1, select bank1
  1105     005D  1303               	bcf	3,6	;RP1=0, select bank1
  1106     005E  00E3               	movwf	(??_main^(0+128)+2)
  1107     005F  3008               	movlw	8
  1108     0060  00E2               	movwf	(??_main^(0+128)+1)
  1109     0061  3076               	movlw	118
  1110     0062  00E1               	movwf	??_main^(0+128)
  1111     0063                     u4657:
  1112     0063  0BE1               	decfsz	??_main^(0+128),f
  1113     0064  2863               	goto	u4657
  1114     0065  0BE2               	decfsz	(??_main^(0+128)+1),f
  1115     0066  2863               	goto	u4657
  1116     0067  0BE3               	decfsz	(??_main^(0+128)+2),f
  1117     0068  2863               	goto	u4657
  1118     0069  0000               	nop
  1119     006A                     l2865:
  1120                           
  1121                           ;main.c: 389:     unsigned char startup_mode = 1;
  1122     006A  3001               	movlw	1
  1123     006B  1683               	bsf	3,5	;RP0=1, select bank1
  1124     006C  1303               	bcf	3,6	;RP1=0, select bank1
  1125     006D  00E4               	movwf	main@startup_mode^(0+128)
  1126                           
  1127                           ;main.c: 390:     static unsigned char prev_limit = 1;;main.c: 391:     unsigned char li
      +                          mit_active = 0;
  1128     006E  01E5               	clrf	main@limit_active^(0+128)
  1129                           
  1130                           ;main.c: 392:     unsigned char system_done = 0;
  1131     006F  01EA               	clrf	main@system_done^(0+128)
  1132     0070                     l2867:
  1133                           
  1134                           ;main.c: 395: {;main.c: 397:     static unsigned char set_state = 0;;main.c: 399:     if
      +                          (RC2 == 1 && set_state == 0)
  1135     0070  1283               	bcf	3,5	;RP0=0, select bank0
  1136     0071  1303               	bcf	3,6	;RP1=0, select bank0
  1137     0072  1D07               	btfss	7,2	;volatile
  1138     0073  2875               	goto	u4161
  1139     0074  2876               	goto	u4160
  1140     0075                     u4161:
  1141     0075  28CD               	goto	l2899
  1142     0076                     u4160:
  1143     0076                     l2869:
  1144     0076  1683               	bsf	3,5	;RP0=1, select bank3
  1145     0077  1703               	bsf	3,6	;RP1=1, select bank3
  1146     0078  0822               	movf	main@set_state^(0+384),w
  1147     0079  1D03               	btfss	3,2
  1148     007A  287C               	goto	u4171
  1149     007B  287D               	goto	u4170
  1150     007C                     u4171:
  1151     007C  28CD               	goto	l2899
  1152     007D                     u4170:
  1153     007D                     l2871:
  1154                           
  1155                           ;main.c: 400:     {;main.c: 401:         _delay((unsigned long)((20)*(8000000/4000.0)));
  1156     007D  3034               	movlw	52
  1157     007E  1683               	bsf	3,5	;RP0=1, select bank1
  1158     007F  1303               	bcf	3,6	;RP1=0, select bank1
  1159     0080  00E2               	movwf	(??_main^(0+128)+1)
  1160     0081  30F1               	movlw	241
  1161     0082  00E1               	movwf	??_main^(0+128)
  1162     0083                     u4667:
  1163     0083  0BE1               	decfsz	??_main^(0+128),f
  1164     0084  2883               	goto	u4667
  1165     0085  0BE2               	decfsz	(??_main^(0+128)+1),f
  1166     0086  2883               	goto	u4667
  1167     0087                     l2873:
  1168                           
  1169                           ;main.c: 403:         if(RC2 == 1)
  1170     0087  1283               	bcf	3,5	;RP0=0, select bank0
  1171     0088  1303               	bcf	3,6	;RP1=0, select bank0
  1172     0089  1D07               	btfss	7,2	;volatile
  1173     008A  288C               	goto	u4181
  1174     008B  288D               	goto	u4180
  1175     008C                     u4181:
  1176     008C  28CD               	goto	l2899
  1177     008D                     u4180:
  1178     008D                     l2875:
  1179                           
  1180                           ;main.c: 404:         {;main.c: 405:             set_state = 1;
  1181     008D  3001               	movlw	1
  1182     008E  1683               	bsf	3,5	;RP0=1, select bank3
  1183     008F  1703               	bsf	3,6	;RP1=1, select bank3
  1184     0090  00A2               	movwf	main@set_state^(0+384)
  1185     0091                     l2877:
  1186                           
  1187                           ;main.c: 407:                 if(mode == MODE_STARTUP)
  1188     0091  1683               	bsf	3,5	;RP0=1, select bank1
  1189     0092  1303               	bcf	3,6	;RP1=0, select bank1
  1190     0093  086D               	movf	_mode^(0+128),w
  1191     0094  1D03               	btfss	3,2
  1192     0095  2897               	goto	u4191
  1193     0096  2898               	goto	u4190
  1194     0097                     u4191:
  1195     0097  289B               	goto	l2881
  1196     0098                     u4190:
  1197     0098                     l2879:
  1198                           
  1199                           ;main.c: 408:                 {;main.c: 409:                     mode = MODE_SET_CURRENT
      +                          ;
  1200     0098  3002               	movlw	2
  1201     0099  00ED               	movwf	_mode^(0+128)
  1202                           
  1203                           ;main.c: 410:                 }
  1204     009A  28CD               	goto	l2899
  1205     009B                     l2881:
  1206     009B  3002               	movlw	2
  1207     009C  066D               	xorwf	_mode^(0+128),w
  1208     009D  1D03               	btfss	3,2
  1209     009E  28A0               	goto	u4201
  1210     009F  28A1               	goto	u4200
  1211     00A0                     u4201:
  1212     00A0  28A4               	goto	l2885
  1213     00A1                     u4200:
  1214     00A1                     l2883:
  1215                           
  1216                           ;main.c: 412:                 {;main.c: 413:                     mode = MODE_SET_VOLTAGE
      +                          ;
  1217     00A1  3003               	movlw	3
  1218     00A2  00ED               	movwf	_mode^(0+128)
  1219                           
  1220                           ;main.c: 414:                 }
  1221     00A3  28CD               	goto	l2899
  1222     00A4                     l2885:
  1223     00A4  3003               	movlw	3
  1224     00A5  066D               	xorwf	_mode^(0+128),w
  1225     00A6  1D03               	btfss	3,2
  1226     00A7  28A9               	goto	u4211
  1227     00A8  28AA               	goto	u4210
  1228     00A9                     u4211:
  1229     00A9  28CD               	goto	l2899
  1230     00AA                     u4210:
  1231     00AA                     l2887:
  1232                           
  1233                           ;main.c: 416:                 {;main.c: 417:                     selected_index = v_inde
      +                          x;
  1234     00AA  086C               	movf	_v_index^(0+128),w
  1235     00AB  00FD               	movwf	_selected_index
  1236     00AC                     l2889:
  1237                           
  1238                           ;main.c: 418:                     selected_voltage = modes[selected_index].voltage;
  1239     00AC  087D               	movf	_selected_index,w
  1240     00AD  00E1               	movwf	??_main^(0+128)
  1241     00AE  3002               	movlw	2
  1242     00AF                     u4225:
  1243     00AF  1003               	clrc
  1244     00B0  0DE1               	rlf	??_main^(0+128),f
  1245     00B1  3EFF               	addlw	-1
  1246     00B2  1D03               	skipz
  1247     00B3  28AF               	goto	u4225
  1248     00B4  1003               	clrc
  1249     00B5  0D61               	rlf	??_main^(0+128),w
  1250     00B6  3E10               	addlw	(low (_modes| (0+256)))& (0+255)
  1251     00B7  0084               	movwf	4
  1252     00B8  1783               	bsf	3,7	;select IRP bank2
  1253     00B9  0800               	movf	0,w
  1254     00BA  1683               	bsf	3,5	;RP0=1, select bank3
  1255     00BB  1703               	bsf	3,6	;RP1=1, select bank3
  1256     00BC  00C5               	movwf	_selected_voltage^(0+384)
  1257     00BD  0A84               	incf	4,f
  1258     00BE  0800               	movf	0,w
  1259     00BF  00C6               	movwf	(_selected_voltage+1)^(0+384)
  1260     00C0  0A84               	incf	4,f
  1261     00C1  0800               	movf	0,w
  1262     00C2  00C7               	movwf	(_selected_voltage+2)^(0+384)
  1263     00C3  0A84               	incf	4,f
  1264     00C4  0800               	movf	0,w
  1265     00C5  00C8               	movwf	(_selected_voltage+3)^(0+384)
  1266     00C6                     l2891:
  1267                           
  1268                           ;main.c: 420:                     mode = MODE_RUN;
  1269     00C6  3004               	movlw	4
  1270     00C7  1683               	bsf	3,5	;RP0=1, select bank1
  1271     00C8  1303               	bcf	3,6	;RP1=0, select bank1
  1272     00C9  00ED               	movwf	_mode^(0+128)
  1273     00CA                     l2893:
  1274                           
  1275                           ;main.c: 423:                     system_done = 0;
  1276     00CA  01EA               	clrf	main@system_done^(0+128)
  1277     00CB                     l2895:
  1278                           
  1279                           ;main.c: 424:                     limit_active = 0;
  1280     00CB  01E5               	clrf	main@limit_active^(0+128)
  1281     00CC                     l2897:
  1282                           
  1283                           ;main.c: 425:                     stage = 0;
  1284     00CC  01FC               	clrf	_stage
  1285     00CD                     l2899:
  1286                           
  1287                           ;main.c: 430:     if(RC2 == 0)
  1288     00CD  1283               	bcf	3,5	;RP0=0, select bank0
  1289     00CE  1303               	bcf	3,6	;RP1=0, select bank0
  1290     00CF  1907               	btfsc	7,2	;volatile
  1291     00D0  28D2               	goto	u4231
  1292     00D1  28D3               	goto	u4230
  1293     00D2                     u4231:
  1294     00D2  28D6               	goto	l2903
  1295     00D3                     u4230:
  1296     00D3                     l2901:
  1297                           
  1298                           ;main.c: 431:     {;main.c: 432:         set_state = 0;
  1299     00D3  1683               	bsf	3,5	;RP0=1, select bank3
  1300     00D4  1703               	bsf	3,6	;RP1=1, select bank3
  1301     00D5  01A2               	clrf	main@set_state^(0+384)
  1302     00D6                     l2903:
  1303                           
  1304                           ;main.c: 436:     if(startup_mode)
  1305     00D6  1683               	bsf	3,5	;RP0=1, select bank1
  1306     00D7  1303               	bcf	3,6	;RP1=0, select bank1
  1307     00D8  0864               	movf	main@startup_mode^(0+128),w
  1308     00D9  1903               	btfsc	3,2
  1309     00DA  28DC               	goto	u4241
  1310     00DB  28DD               	goto	u4240
  1311     00DC                     u4241:
  1312     00DC  291F               	goto	l2921
  1313     00DD                     u4240:
  1314     00DD                     l2905:
  1315                           
  1316                           ;main.c: 437:     {;main.c: 438:         duty = 5;
  1317     00DD  3005               	movlw	5
  1318     00DE  1683               	bsf	3,5	;RP0=1, select bank3
  1319     00DF  1703               	bsf	3,6	;RP1=1, select bank3
  1320     00E0  00C9               	movwf	_duty^(0+384)	;volatile
  1321     00E1  3000               	movlw	0
  1322     00E2  00CA               	movwf	(_duty^(0+384)+1)	;volatile
  1323     00E3                     l2907:
  1324                           
  1325                           ;main.c: 439:         motor_reverse();
  1326     00E3  120A  158A  2001  120A  118A  	fcall	_motor_reverse
  1327     00E8                     l2909:
  1328                           
  1329                           ;main.c: 441:         if(RA5 == 0)
  1330     00E8  1283               	bcf	3,5	;RP0=0, select bank0
  1331     00E9  1303               	bcf	3,6	;RP1=0, select bank0
  1332     00EA  1A85               	btfsc	5,5	;volatile
  1333     00EB  28ED               	goto	u4251
  1334     00EC  28EE               	goto	u4250
  1335     00ED                     u4251:
  1336     00ED  2870               	goto	l2867
  1337     00EE                     u4250:
  1338     00EE                     l2911:
  1339                           
  1340                           ;main.c: 442:         {;main.c: 443:             motor_stop();
  1341     00EE  160A  118A  20AA  120A  118A  	fcall	_motor_stop
  1342     00F3                     l2913:
  1343                           
  1344                           ;main.c: 444:             _delay((unsigned long)((200)*(8000000/4000.0)));
  1345     00F3  3003               	movlw	3
  1346     00F4  1683               	bsf	3,5	;RP0=1, select bank1
  1347     00F5  1303               	bcf	3,6	;RP1=0, select bank1
  1348     00F6  00E3               	movwf	(??_main^(0+128)+2)
  1349     00F7  3008               	movlw	8
  1350     00F8  00E2               	movwf	(??_main^(0+128)+1)
  1351     00F9  3076               	movlw	118
  1352     00FA  00E1               	movwf	??_main^(0+128)
  1353     00FB                     u4677:
  1354     00FB  0BE1               	decfsz	??_main^(0+128),f
  1355     00FC  28FB               	goto	u4677
  1356     00FD  0BE2               	decfsz	(??_main^(0+128)+1),f
  1357     00FE  28FB               	goto	u4677
  1358     00FF  0BE3               	decfsz	(??_main^(0+128)+2),f
  1359     0100  28FB               	goto	u4677
  1360     0101  0000               	nop
  1361     0102                     l2915:
  1362                           
  1363                           ;main.c: 446:             motor_forward();
  1364     0102  160A  118A  20B7  120A  118A  	fcall	_motor_forward
  1365                           
  1366                           ;main.c: 447:             _delay((unsigned long)((200)*(8000000/4000.0)));
  1367     0107  3003               	movlw	3
  1368     0108  1683               	bsf	3,5	;RP0=1, select bank1
  1369     0109  1303               	bcf	3,6	;RP1=0, select bank1
  1370     010A  00E3               	movwf	(??_main^(0+128)+2)
  1371     010B  3008               	movlw	8
  1372     010C  00E2               	movwf	(??_main^(0+128)+1)
  1373     010D  3076               	movlw	118
  1374     010E  00E1               	movwf	??_main^(0+128)
  1375     010F                     u4687:
  1376     010F  0BE1               	decfsz	??_main^(0+128),f
  1377     0110  290F               	goto	u4687
  1378     0111  0BE2               	decfsz	(??_main^(0+128)+1),f
  1379     0112  290F               	goto	u4687
  1380     0113  0BE3               	decfsz	(??_main^(0+128)+2),f
  1381     0114  290F               	goto	u4687
  1382     0115  0000               	nop
  1383     0116                     l2917:
  1384                           
  1385                           ;main.c: 449:             motor_stop();
  1386     0116  160A  118A  20AA  120A  118A  	fcall	_motor_stop
  1387     011B                     l2919:
  1388                           
  1389                           ;main.c: 451:             startup_mode = 0;
  1390     011B  1683               	bsf	3,5	;RP0=1, select bank1
  1391     011C  1303               	bcf	3,6	;RP1=0, select bank1
  1392     011D  01E4               	clrf	main@startup_mode^(0+128)
  1393     011E  2870               	goto	l2867
  1394     011F                     l2921:
  1395                           
  1396                           ;main.c: 458:     if(mode == MODE_STARTUP)
  1397     011F  086D               	movf	_mode^(0+128),w
  1398     0120  1D03               	btfss	3,2
  1399     0121  2923               	goto	u4261
  1400     0122  2924               	goto	u4260
  1401     0123                     u4261:
  1402     0123  29A7               	goto	l2941
  1403     0124                     u4260:
  1404     0124                     l2923:
  1405                           
  1406                           ;main.c: 459:     {;main.c: 460:         static unsigned char toggle = 0;;main.c: 462:  
      +                                 voltage2 = getVoltage(2);
  1407     0124  3002               	movlw	2
  1408     0125  160A  118A  256C  120A  118A  	fcall	_getVoltage
  1409     012A  1683               	bsf	3,5	;RP0=1, select bank1
  1410     012B  1303               	bcf	3,6	;RP1=0, select bank1
  1411     012C  083D               	movf	(?_getVoltage+3)^(0+128),w
  1412     012D  1683               	bsf	3,5	;RP0=1, select bank3
  1413     012E  1703               	bsf	3,6	;RP1=1, select bank3
  1414     012F  009B               	movwf	(_voltage2+3)^(0+384)
  1415     0130  1683               	bsf	3,5	;RP0=1, select bank1
  1416     0131  1303               	bcf	3,6	;RP1=0, select bank1
  1417     0132  083C               	movf	(?_getVoltage+2)^(0+128),w
  1418     0133  1683               	bsf	3,5	;RP0=1, select bank3
  1419     0134  1703               	bsf	3,6	;RP1=1, select bank3
  1420     0135  009A               	movwf	(_voltage2+2)^(0+384)
  1421     0136  1683               	bsf	3,5	;RP0=1, select bank1
  1422     0137  1303               	bcf	3,6	;RP1=0, select bank1
  1423     0138  083B               	movf	(?_getVoltage+1)^(0+128),w
  1424     0139  1683               	bsf	3,5	;RP0=1, select bank3
  1425     013A  1703               	bsf	3,6	;RP1=1, select bank3
  1426     013B  0099               	movwf	(_voltage2+1)^(0+384)
  1427     013C  1683               	bsf	3,5	;RP0=1, select bank1
  1428     013D  1303               	bcf	3,6	;RP1=0, select bank1
  1429     013E  083A               	movf	?_getVoltage^(0+128),w
  1430     013F  1683               	bsf	3,5	;RP0=1, select bank3
  1431     0140  1703               	bsf	3,6	;RP1=1, select bank3
  1432     0141  0098               	movwf	_voltage2^(0+384)
  1433     0142                     l2925:
  1434                           
  1435                           ;main.c: 464:         if(voltage2 < 2.0)
  1436     0142  081B               	movf	(_voltage2+3)^(0+384),w
  1437     0143  1683               	bsf	3,5	;RP0=1, select bank1
  1438     0144  1303               	bcf	3,6	;RP1=0, select bank1
  1439     0145  00CE               	movwf	(___flge@ff1+3)^(0+128)
  1440     0146  1683               	bsf	3,5	;RP0=1, select bank3
  1441     0147  1703               	bsf	3,6	;RP1=1, select bank3
  1442     0148  081A               	movf	(_voltage2+2)^(0+384),w
  1443     0149  1683               	bsf	3,5	;RP0=1, select bank1
  1444     014A  1303               	bcf	3,6	;RP1=0, select bank1
  1445     014B  00CD               	movwf	(___flge@ff1+2)^(0+128)
  1446     014C  1683               	bsf	3,5	;RP0=1, select bank3
  1447     014D  1703               	bsf	3,6	;RP1=1, select bank3
  1448     014E  0819               	movf	(_voltage2+1)^(0+384),w
  1449     014F  1683               	bsf	3,5	;RP0=1, select bank1
  1450     0150  1303               	bcf	3,6	;RP1=0, select bank1
  1451     0151  00CC               	movwf	(___flge@ff1+1)^(0+128)
  1452     0152  1683               	bsf	3,5	;RP0=1, select bank3
  1453     0153  1703               	bsf	3,6	;RP1=1, select bank3
  1454     0154  0818               	movf	_voltage2^(0+384),w
  1455     0155  1683               	bsf	3,5	;RP0=1, select bank1
  1456     0156  1303               	bcf	3,6	;RP1=0, select bank1
  1457     0157  00CB               	movwf	___flge@ff1^(0+128)
  1458     0158  3040               	movlw	64
  1459     0159  00D2               	movwf	(___flge@ff2+3)^(0+128)
  1460     015A  3000               	movlw	0
  1461     015B  00D1               	movwf	(___flge@ff2+2)^(0+128)
  1462     015C  3000               	movlw	0
  1463     015D  00D0               	movwf	(___flge@ff2+1)^(0+128)
  1464     015E  3000               	movlw	0
  1465     015F  00CF               	movwf	___flge@ff2^(0+128)
  1466     0160  160A  118A  2348  120A  118A  	fcall	___flge
  1467     0165  1803               	btfsc	3,0
  1468     0166  2968               	goto	u4271
  1469     0167  2969               	goto	u4270
  1470     0168                     u4271:
  1471     0168  299C               	goto	l230
  1472     0169                     u4270:
  1473     0169                     l2927:
  1474                           
  1475                           ;main.c: 465:         {;main.c: 466:             if(toggle == 0)
  1476     0169  087A               	movf	main@toggle,w
  1477     016A  1D03               	btfss	3,2
  1478     016B  296D               	goto	u4281
  1479     016C  296E               	goto	u4280
  1480     016D                     u4281:
  1481     016D  2979               	goto	l231
  1482     016E                     u4280:
  1483     016E                     l2929:
  1484                           
  1485                           ;main.c: 467:             {;main.c: 469:                 ts1 = 0X1E;
  1486     016E  301E               	movlw	30
  1487     016F  1683               	bsf	3,5	;RP0=1, select bank3
  1488     0170  1703               	bsf	3,6	;RP1=1, select bank3
  1489     0171  00B0               	movwf	_ts1^(0+384)	;volatile
  1490                           
  1491                           ;main.c: 470:                 ts2 = 0XF8;
  1492     0172  30F8               	movlw	248
  1493     0173  00AF               	movwf	_ts2^(0+384)	;volatile
  1494                           
  1495                           ;main.c: 471:                 ts3 = 0X3E;
  1496     0174  303E               	movlw	62
  1497     0175  00AE               	movwf	_ts3^(0+384)	;volatile
  1498                           
  1499                           ;main.c: 472:                 ts4 = 0XC3;
  1500     0176  30C3               	movlw	195
  1501     0177  00AD               	movwf	_ts4^(0+384)	;volatile
  1502                           
  1503                           ;main.c: 473:             }
  1504     0178  2983               	goto	l2931
  1505     0179                     l231:	
  1506                           ;main.c: 474:             else
  1507                           
  1508                           
  1509                           ;main.c: 475:             {;main.c: 477:                 ts1 = 0X2C;
  1510     0179  302C               	movlw	44
  1511     017A  1683               	bsf	3,5	;RP0=1, select bank3
  1512     017B  1703               	bsf	3,6	;RP1=1, select bank3
  1513     017C  00B0               	movwf	_ts1^(0+384)	;volatile
  1514                           
  1515                           ;main.c: 478:                 ts2 = 0X87;
  1516     017D  3087               	movlw	135
  1517     017E  00AF               	movwf	_ts2^(0+384)	;volatile
  1518                           
  1519                           ;main.c: 479:                 ts3 = 0X3E;
  1520     017F  303E               	movlw	62
  1521     0180  00AE               	movwf	_ts3^(0+384)	;volatile
  1522                           
  1523                           ;main.c: 480:                 ts4 = 0XC3;
  1524     0181  30C3               	movlw	195
  1525     0182  00AD               	movwf	_ts4^(0+384)	;volatile
  1526     0183                     l2931:
  1527                           
  1528                           ;main.c: 483:             toggle = !toggle;
  1529     0183  087A               	movf	main@toggle,w
  1530     0184  1903               	btfsc	3,2
  1531     0185  2987               	goto	u4291
  1532     0186  2989               	goto	u4290
  1533     0187                     u4291:
  1534     0187  3001               	movlw	1
  1535     0188  298A               	goto	u4300
  1536     0189                     u4290:
  1537     0189  3000               	movlw	0
  1538     018A                     u4300:
  1539     018A  00FA               	movwf	main@toggle
  1540     018B                     l2933:
  1541                           
  1542                           ;main.c: 484:             outputOk = 1;
  1543     018B  3001               	movlw	1
  1544     018C  00A9               	movwf	_outputOk^(0+384)
  1545     018D                     l2935:
  1546                           
  1547                           ;main.c: 485:             _delay((unsigned long)((500)*(8000000/4000.0)));
  1548     018D  3006               	movlw	6
  1549     018E  1683               	bsf	3,5	;RP0=1, select bank1
  1550     018F  1303               	bcf	3,6	;RP1=0, select bank1
  1551     0190  00E3               	movwf	(??_main^(0+128)+2)
  1552     0191  3013               	movlw	19
  1553     0192  00E2               	movwf	(??_main^(0+128)+1)
  1554     0193  30AD               	movlw	173
  1555     0194  00E1               	movwf	??_main^(0+128)
  1556     0195                     u4697:
  1557     0195  0BE1               	decfsz	??_main^(0+128),f
  1558     0196  2995               	goto	u4697
  1559     0197  0BE2               	decfsz	(??_main^(0+128)+1),f
  1560     0198  2995               	goto	u4697
  1561     0199  0BE3               	decfsz	(??_main^(0+128)+2),f
  1562     019A  2995               	goto	u4697
  1563                           
  1564                           ;main.c: 486:         }
  1565     019B  29A7               	goto	l2941
  1566     019C                     l230:	
  1567                           ;main.c: 487:         else
  1568                           
  1569                           
  1570                           ;main.c: 488:         {;main.c: 490:             ts1 = 0X76;
  1571     019C  3076               	movlw	118
  1572     019D  1683               	bsf	3,5	;RP0=1, select bank3
  1573     019E  1703               	bsf	3,6	;RP1=1, select bank3
  1574     019F  00B0               	movwf	_ts1^(0+384)	;volatile
  1575                           
  1576                           ;main.c: 491:             ts2 = 0XE3;
  1577     01A0  30E3               	movlw	227
  1578     01A1  00AF               	movwf	_ts2^(0+384)	;volatile
  1579                           
  1580                           ;main.c: 492:             ts3 = 0X3C;
  1581     01A2  303C               	movlw	60
  1582     01A3  00AE               	movwf	_ts3^(0+384)	;volatile
  1583     01A4                     l2937:
  1584                           
  1585                           ;main.c: 493:             ts4 = 0x00;
  1586     01A4  01AD               	clrf	_ts4^(0+384)	;volatile
  1587     01A5                     l2939:
  1588                           
  1589                           ;main.c: 495:             outputOk = 1;
  1590     01A5  3001               	movlw	1
  1591     01A6  00A9               	movwf	_outputOk^(0+384)
  1592     01A7                     l2941:
  1593                           
  1594                           ;main.c: 500:     if(mode == MODE_SET_CURRENT)
  1595     01A7  3002               	movlw	2
  1596     01A8  1683               	bsf	3,5	;RP0=1, select bank1
  1597     01A9  1303               	bcf	3,6	;RP1=0, select bank1
  1598     01AA  066D               	xorwf	_mode^(0+128),w
  1599     01AB  1D03               	btfss	3,2
  1600     01AC  29AE               	goto	u4311
  1601     01AD  29AF               	goto	u4310
  1602     01AE                     u4311:
  1603     01AE  29F4               	goto	l2949
  1604     01AF                     u4310:
  1605     01AF                     l2943:
  1606                           
  1607                           ;main.c: 501:     {;main.c: 502:         current_limit = getAmps(0);
  1608     01AF  3000               	movlw	0
  1609     01B0  160A  118A  24A2  120A  118A  	fcall	_getAmps
  1610     01B5  1683               	bsf	3,5	;RP0=1, select bank1
  1611     01B6  1303               	bcf	3,6	;RP1=0, select bank1
  1612     01B7  083D               	movf	(?_getAmps+3)^(0+128),w
  1613     01B8  1683               	bsf	3,5	;RP0=1, select bank3
  1614     01B9  1703               	bsf	3,6	;RP1=1, select bank3
  1615     01BA  009F               	movwf	(_current_limit+3)^(0+384)
  1616     01BB  1683               	bsf	3,5	;RP0=1, select bank1
  1617     01BC  1303               	bcf	3,6	;RP1=0, select bank1
  1618     01BD  083C               	movf	(?_getAmps+2)^(0+128),w
  1619     01BE  1683               	bsf	3,5	;RP0=1, select bank3
  1620     01BF  1703               	bsf	3,6	;RP1=1, select bank3
  1621     01C0  009E               	movwf	(_current_limit+2)^(0+384)
  1622     01C1  1683               	bsf	3,5	;RP0=1, select bank1
  1623     01C2  1303               	bcf	3,6	;RP1=0, select bank1
  1624     01C3  083B               	movf	(?_getAmps+1)^(0+128),w
  1625     01C4  1683               	bsf	3,5	;RP0=1, select bank3
  1626     01C5  1703               	bsf	3,6	;RP1=1, select bank3
  1627     01C6  009D               	movwf	(_current_limit+1)^(0+384)
  1628     01C7  1683               	bsf	3,5	;RP0=1, select bank1
  1629     01C8  1303               	bcf	3,6	;RP1=0, select bank1
  1630     01C9  083A               	movf	?_getAmps^(0+128),w
  1631     01CA  1683               	bsf	3,5	;RP0=1, select bank3
  1632     01CB  1703               	bsf	3,6	;RP1=1, select bank3
  1633     01CC  009C               	movwf	_current_limit^(0+384)
  1634     01CD                     l2945:
  1635                           
  1636                           ;main.c: 503:         splitFloat(current_limit, &ts1, &ts2, &ts3, &ts4);
  1637     01CD  081F               	movf	(_current_limit+3)^(0+384),w
  1638     01CE  1683               	bsf	3,5	;RP0=1, select bank1
  1639     01CF  1303               	bcf	3,6	;RP1=0, select bank1
  1640     01D0  00DA               	movwf	(splitFloat@val+3)^(0+128)
  1641     01D1  1683               	bsf	3,5	;RP0=1, select bank3
  1642     01D2  1703               	bsf	3,6	;RP1=1, select bank3
  1643     01D3  081E               	movf	(_current_limit+2)^(0+384),w
  1644     01D4  1683               	bsf	3,5	;RP0=1, select bank1
  1645     01D5  1303               	bcf	3,6	;RP1=0, select bank1
  1646     01D6  00D9               	movwf	(splitFloat@val+2)^(0+128)
  1647     01D7  1683               	bsf	3,5	;RP0=1, select bank3
  1648     01D8  1703               	bsf	3,6	;RP1=1, select bank3
  1649     01D9  081D               	movf	(_current_limit+1)^(0+384),w
  1650     01DA  1683               	bsf	3,5	;RP0=1, select bank1
  1651     01DB  1303               	bcf	3,6	;RP1=0, select bank1
  1652     01DC  00D8               	movwf	(splitFloat@val+1)^(0+128)
  1653     01DD  1683               	bsf	3,5	;RP0=1, select bank3
  1654     01DE  1703               	bsf	3,6	;RP1=1, select bank3
  1655     01DF  081C               	movf	_current_limit^(0+384),w
  1656     01E0  1683               	bsf	3,5	;RP0=1, select bank1
  1657     01E1  1303               	bcf	3,6	;RP1=0, select bank1
  1658     01E2  00D7               	movwf	splitFloat@val^(0+128)
  1659     01E3  30B0               	movlw	(low (_ts1| (0+256)))& (0+255)
  1660     01E4  00DB               	movwf	splitFloat@d_1000^(0+128)
  1661     01E5  30AF               	movlw	(low (_ts2| (0+256)))& (0+255)
  1662     01E6  00DC               	movwf	splitFloat@d_100^(0+128)
  1663     01E7  30AE               	movlw	(low (_ts3| (0+256)))& (0+255)
  1664     01E8  00DD               	movwf	splitFloat@d_10^(0+128)
  1665     01E9  30AD               	movlw	(low (_ts4| (0+256)))& (0+255)
  1666     01EA  00DE               	movwf	splitFloat@d_1^(0+128)
  1667     01EB  120A  158A  237A  120A  118A  	fcall	_splitFloat
  1668     01F0                     l2947:
  1669                           
  1670                           ;main.c: 504:         outputOk = 1;
  1671     01F0  3001               	movlw	1
  1672     01F1  1683               	bsf	3,5	;RP0=1, select bank3
  1673     01F2  1703               	bsf	3,6	;RP1=1, select bank3
  1674     01F3  00A9               	movwf	_outputOk^(0+384)
  1675     01F4                     l2949:
  1676                           
  1677                           ;main.c: 508:     if(mode == MODE_SET_VOLTAGE)
  1678     01F4  3003               	movlw	3
  1679     01F5  1303               	bcf	3,6	;RP1=0, select bank1
  1680     01F6  066D               	xorwf	_mode^(0+128),w
  1681     01F7  1D03               	btfss	3,2
  1682     01F8  29FA               	goto	u4321
  1683     01F9  29FB               	goto	u4320
  1684     01FA                     u4321:
  1685     01FA  2AA2               	goto	l2993
  1686     01FB                     u4320:
  1687     01FB                     l2951:
  1688                           
  1689                           ;main.c: 509:     {;main.c: 511:         if(last_up == 0 && RC0 == 1)
  1690     01FB  087B               	movf	_last_up,w
  1691     01FC  1D03               	btfss	3,2
  1692     01FD  29FF               	goto	u4331
  1693     01FE  2A00               	goto	u4330
  1694     01FF                     u4331:
  1695     01FF  2A21               	goto	l2965
  1696     0200                     u4330:
  1697     0200                     l2953:
  1698     0200  1283               	bcf	3,5	;RP0=0, select bank0
  1699     0201  1303               	bcf	3,6	;RP1=0, select bank0
  1700     0202  1C07               	btfss	7,0	;volatile
  1701     0203  2A05               	goto	u4341
  1702     0204  2A06               	goto	u4340
  1703     0205                     u4341:
  1704     0205  2A21               	goto	l2965
  1705     0206                     u4340:
  1706     0206                     l2955:
  1707                           
  1708                           ;main.c: 512:         {;main.c: 513:             _delay((unsigned long)((20)*(8000000/40
      +                          00.0)));
  1709     0206  3034               	movlw	52
  1710     0207  1683               	bsf	3,5	;RP0=1, select bank1
  1711     0208  1303               	bcf	3,6	;RP1=0, select bank1
  1712     0209  00E2               	movwf	(??_main^(0+128)+1)
  1713     020A  30F1               	movlw	241
  1714     020B  00E1               	movwf	??_main^(0+128)
  1715     020C                     u4707:
  1716     020C  0BE1               	decfsz	??_main^(0+128),f
  1717     020D  2A0C               	goto	u4707
  1718     020E  0BE2               	decfsz	(??_main^(0+128)+1),f
  1719     020F  2A0C               	goto	u4707
  1720     0210                     l2957:
  1721                           
  1722                           ;main.c: 514:             if(RC0 == 1)
  1723     0210  1283               	bcf	3,5	;RP0=0, select bank0
  1724     0211  1303               	bcf	3,6	;RP1=0, select bank0
  1725     0212  1C07               	btfss	7,0	;volatile
  1726     0213  2A15               	goto	u4351
  1727     0214  2A16               	goto	u4350
  1728     0215                     u4351:
  1729     0215  2A21               	goto	l2965
  1730     0216                     u4350:
  1731     0216                     l2959:
  1732                           
  1733                           ;main.c: 515:             {;main.c: 516:                 v_index++;
  1734     0216  3001               	movlw	1
  1735     0217  1683               	bsf	3,5	;RP0=1, select bank1
  1736     0218  1303               	bcf	3,6	;RP1=0, select bank1
  1737     0219  07EC               	addwf	_v_index^(0+128),f
  1738     021A                     l2961:
  1739                           
  1740                           ;main.c: 517:                 if(v_index > 2) v_index = 0;
  1741     021A  3003               	movlw	3
  1742     021B  026C               	subwf	_v_index^(0+128),w
  1743     021C  1C03               	skipc
  1744     021D  2A1F               	goto	u4361
  1745     021E  2A20               	goto	u4360
  1746     021F                     u4361:
  1747     021F  2A21               	goto	l2965
  1748     0220                     u4360:
  1749     0220                     l2963:
  1750     0220  01EC               	clrf	_v_index^(0+128)
  1751     0221                     l2965:
  1752                           
  1753                           ;main.c: 520:         last_up = RC0;
  1754     0221  3000               	movlw	0
  1755     0222  1283               	bcf	3,5	;RP0=0, select bank0
  1756     0223  1807               	btfsc	7,0	;volatile
  1757     0224  3001               	movlw	1
  1758     0225  00FB               	movwf	_last_up
  1759     0226                     l2967:
  1760                           
  1761                           ;main.c: 523:         if(last_down == 0 && RC1 == 1)
  1762     0226  1683               	bsf	3,5	;RP0=1, select bank3
  1763     0227  1703               	bsf	3,6	;RP1=1, select bank3
  1764     0228  082B               	movf	_last_down^(0+384),w
  1765     0229  1D03               	btfss	3,2
  1766     022A  2A2C               	goto	u4371
  1767     022B  2A2D               	goto	u4370
  1768     022C                     u4371:
  1769     022C  2A4F               	goto	l2981
  1770     022D                     u4370:
  1771     022D                     l2969:
  1772     022D  1283               	bcf	3,5	;RP0=0, select bank0
  1773     022E  1303               	bcf	3,6	;RP1=0, select bank0
  1774     022F  1C87               	btfss	7,1	;volatile
  1775     0230  2A32               	goto	u4381
  1776     0231  2A33               	goto	u4380
  1777     0232                     u4381:
  1778     0232  2A4F               	goto	l2981
  1779     0233                     u4380:
  1780     0233                     l2971:
  1781                           
  1782                           ;main.c: 524:         {;main.c: 525:             _delay((unsigned long)((20)*(8000000/40
      +                          00.0)));
  1783     0233  3034               	movlw	52
  1784     0234  1683               	bsf	3,5	;RP0=1, select bank1
  1785     0235  1303               	bcf	3,6	;RP1=0, select bank1
  1786     0236  00E2               	movwf	(??_main^(0+128)+1)
  1787     0237  30F1               	movlw	241
  1788     0238  00E1               	movwf	??_main^(0+128)
  1789     0239                     u4717:
  1790     0239  0BE1               	decfsz	??_main^(0+128),f
  1791     023A  2A39               	goto	u4717
  1792     023B  0BE2               	decfsz	(??_main^(0+128)+1),f
  1793     023C  2A39               	goto	u4717
  1794     023D                     l2973:
  1795                           
  1796                           ;main.c: 526:             if(RC1 == 1)
  1797     023D  1283               	bcf	3,5	;RP0=0, select bank0
  1798     023E  1303               	bcf	3,6	;RP1=0, select bank0
  1799     023F  1C87               	btfss	7,1	;volatile
  1800     0240  2A42               	goto	u4391
  1801     0241  2A43               	goto	u4390
  1802     0242                     u4391:
  1803     0242  2A4F               	goto	l2981
  1804     0243                     u4390:
  1805     0243                     l2975:
  1806                           
  1807                           ;main.c: 527:             {;main.c: 528:                 if(v_index == 0)
  1808     0243  1683               	bsf	3,5	;RP0=1, select bank1
  1809     0244  1303               	bcf	3,6	;RP1=0, select bank1
  1810     0245  086C               	movf	_v_index^(0+128),w
  1811     0246  1D03               	btfss	3,2
  1812     0247  2A49               	goto	u4401
  1813     0248  2A4A               	goto	u4400
  1814     0249                     u4401:
  1815     0249  2A4D               	goto	l2979
  1816     024A                     u4400:
  1817     024A                     l2977:
  1818                           
  1819                           ;main.c: 529:                     v_index = 2;
  1820     024A  3002               	movlw	2
  1821     024B  00EC               	movwf	_v_index^(0+128)
  1822     024C  2A4F               	goto	l2981
  1823     024D                     l2979:
  1824                           
  1825                           ;main.c: 531:                     v_index--;
  1826     024D  3001               	movlw	1
  1827     024E  02EC               	subwf	_v_index^(0+128),f
  1828     024F                     l2981:
  1829                           
  1830                           ;main.c: 534:         last_down = RC1;
  1831     024F  3000               	movlw	0
  1832     0250  1283               	bcf	3,5	;RP0=0, select bank0
  1833     0251  1303               	bcf	3,6	;RP1=0, select bank0
  1834     0252  1887               	btfsc	7,1	;volatile
  1835     0253  3001               	movlw	1
  1836     0254  1683               	bsf	3,5	;RP0=1, select bank3
  1837     0255  1703               	bsf	3,6	;RP1=1, select bank3
  1838     0256  00AB               	movwf	_last_down^(0+384)
  1839     0257                     l2983:
  1840                           
  1841                           ;main.c: 537:         ts1 = modes[v_index].display[0];
  1842     0257  1683               	bsf	3,5	;RP0=1, select bank1
  1843     0258  1303               	bcf	3,6	;RP1=0, select bank1
  1844     0259  086C               	movf	_v_index^(0+128),w
  1845     025A  00E1               	movwf	??_main^(0+128)
  1846     025B  3002               	movlw	2
  1847     025C                     u4415:
  1848     025C  1003               	clrc
  1849     025D  0DE1               	rlf	??_main^(0+128),f
  1850     025E  3EFF               	addlw	-1
  1851     025F  1D03               	skipz
  1852     0260  2A5C               	goto	u4415
  1853     0261  1003               	clrc
  1854     0262  0D61               	rlf	??_main^(0+128),w
  1855     0263  3E14               	addlw	(low ((_modes| (0+256)+4)))& (0+255)
  1856     0264  0084               	movwf	4
  1857     0265  1783               	bsf	3,7	;select IRP bank2
  1858     0266  0800               	movf	0,w
  1859     0267  1683               	bsf	3,5	;RP0=1, select bank3
  1860     0268  1703               	bsf	3,6	;RP1=1, select bank3
  1861     0269  00B0               	movwf	_ts1^(0+384)	;volatile
  1862     026A                     l2985:
  1863                           
  1864                           ;main.c: 538:         ts2 = modes[v_index].display[1];
  1865     026A  1683               	bsf	3,5	;RP0=1, select bank1
  1866     026B  1303               	bcf	3,6	;RP1=0, select bank1
  1867     026C  086C               	movf	_v_index^(0+128),w
  1868     026D  00E1               	movwf	??_main^(0+128)
  1869     026E  3002               	movlw	2
  1870     026F                     u4425:
  1871     026F  1003               	clrc
  1872     0270  0DE1               	rlf	??_main^(0+128),f
  1873     0271  3EFF               	addlw	-1
  1874     0272  1D03               	skipz
  1875     0273  2A6F               	goto	u4425
  1876     0274  1003               	clrc
  1877     0275  0D61               	rlf	??_main^(0+128),w
  1878     0276  3E15               	addlw	(low ((_modes| (0+256)+5)))& (0+255)
  1879     0277  0084               	movwf	4
  1880     0278  0800               	movf	0,w
  1881     0279  1683               	bsf	3,5	;RP0=1, select bank3
  1882     027A  1703               	bsf	3,6	;RP1=1, select bank3
  1883     027B  00AF               	movwf	_ts2^(0+384)	;volatile
  1884     027C                     l2987:
  1885                           
  1886                           ;main.c: 539:         ts3 = modes[v_index].display[2];
  1887     027C  1683               	bsf	3,5	;RP0=1, select bank1
  1888     027D  1303               	bcf	3,6	;RP1=0, select bank1
  1889     027E  086C               	movf	_v_index^(0+128),w
  1890     027F  00E1               	movwf	??_main^(0+128)
  1891     0280  3002               	movlw	2
  1892     0281                     u4435:
  1893     0281  1003               	clrc
  1894     0282  0DE1               	rlf	??_main^(0+128),f
  1895     0283  3EFF               	addlw	-1
  1896     0284  1D03               	skipz
  1897     0285  2A81               	goto	u4435
  1898     0286  1003               	clrc
  1899     0287  0D61               	rlf	??_main^(0+128),w
  1900     0288  3E16               	addlw	(low ((_modes| (0+256)+6)))& (0+255)
  1901     0289  0084               	movwf	4
  1902     028A  0800               	movf	0,w
  1903     028B  1683               	bsf	3,5	;RP0=1, select bank3
  1904     028C  1703               	bsf	3,6	;RP1=1, select bank3
  1905     028D  00AE               	movwf	_ts3^(0+384)	;volatile
  1906     028E                     l2989:
  1907                           
  1908                           ;main.c: 540:         ts4 = modes[v_index].display[3];
  1909     028E  1683               	bsf	3,5	;RP0=1, select bank1
  1910     028F  1303               	bcf	3,6	;RP1=0, select bank1
  1911     0290  086C               	movf	_v_index^(0+128),w
  1912     0291  00E1               	movwf	??_main^(0+128)
  1913     0292  3002               	movlw	2
  1914     0293                     u4445:
  1915     0293  1003               	clrc
  1916     0294  0DE1               	rlf	??_main^(0+128),f
  1917     0295  3EFF               	addlw	-1
  1918     0296  1D03               	skipz
  1919     0297  2A93               	goto	u4445
  1920     0298  1003               	clrc
  1921     0299  0D61               	rlf	??_main^(0+128),w
  1922     029A  3E17               	addlw	(low ((_modes| (0+256)+7)))& (0+255)
  1923     029B  0084               	movwf	4
  1924     029C  0800               	movf	0,w
  1925     029D  1683               	bsf	3,5	;RP0=1, select bank3
  1926     029E  1703               	bsf	3,6	;RP1=1, select bank3
  1927     029F  00AD               	movwf	_ts4^(0+384)	;volatile
  1928     02A0                     l2991:
  1929                           
  1930                           ;main.c: 542:         outputOk = 1;
  1931     02A0  3001               	movlw	1
  1932     02A1  00A9               	movwf	_outputOk^(0+384)
  1933     02A2                     l2993:
  1934                           
  1935                           ;main.c: 546: if(system_done == 1)
  1936     02A2  1303               	bcf	3,6	;RP1=0, select bank1
  1937     02A3  036A               	decf	main@system_done^(0+128),w
  1938     02A4  1D03               	btfss	3,2
  1939     02A5  2AA7               	goto	u4451
  1940     02A6  2AA8               	goto	u4450
  1941     02A7                     u4451:
  1942     02A7  2AAE               	goto	l2997
  1943     02A8                     u4450:
  1944     02A8                     l2995:
  1945                           
  1946                           ;main.c: 547: {;main.c: 548:     motor_stop();
  1947     02A8  160A  118A  20AA  120A  118A  	fcall	_motor_stop
  1948                           
  1949                           ;main.c: 549:     continue;
  1950     02AD  2870               	goto	l2867
  1951     02AE                     l2997:
  1952                           
  1953                           ;main.c: 552:     if(mode == MODE_RUN)
  1954     02AE  3004               	movlw	4
  1955     02AF  066D               	xorwf	_mode^(0+128),w
  1956     02B0  1D03               	btfss	3,2
  1957     02B1  2AB3               	goto	u4461
  1958     02B2  2AB4               	goto	u4460
  1959     02B3                     u4461:
  1960     02B3  2870               	goto	l2867
  1961     02B4                     u4460:
  1962     02B4                     l2999:
  1963                           
  1964                           ;main.c: 553:     {;main.c: 554:         duty = 3;
  1965     02B4  3003               	movlw	3
  1966     02B5  1683               	bsf	3,5	;RP0=1, select bank3
  1967     02B6  1703               	bsf	3,6	;RP1=1, select bank3
  1968     02B7  00C9               	movwf	_duty^(0+384)	;volatile
  1969     02B8  3000               	movlw	0
  1970     02B9  00CA               	movwf	(_duty^(0+384)+1)	;volatile
  1971     02BA                     l3001:
  1972                           
  1973                           ;main.c: 556:         voltage2 = getVoltage(2);
  1974     02BA  3002               	movlw	2
  1975     02BB  160A  118A  256C  120A  118A  	fcall	_getVoltage
  1976     02C0  1683               	bsf	3,5	;RP0=1, select bank1
  1977     02C1  1303               	bcf	3,6	;RP1=0, select bank1
  1978     02C2  083D               	movf	(?_getVoltage+3)^(0+128),w
  1979     02C3  1683               	bsf	3,5	;RP0=1, select bank3
  1980     02C4  1703               	bsf	3,6	;RP1=1, select bank3
  1981     02C5  009B               	movwf	(_voltage2+3)^(0+384)
  1982     02C6  1683               	bsf	3,5	;RP0=1, select bank1
  1983     02C7  1303               	bcf	3,6	;RP1=0, select bank1
  1984     02C8  083C               	movf	(?_getVoltage+2)^(0+128),w
  1985     02C9  1683               	bsf	3,5	;RP0=1, select bank3
  1986     02CA  1703               	bsf	3,6	;RP1=1, select bank3
  1987     02CB  009A               	movwf	(_voltage2+2)^(0+384)
  1988     02CC  1683               	bsf	3,5	;RP0=1, select bank1
  1989     02CD  1303               	bcf	3,6	;RP1=0, select bank1
  1990     02CE  083B               	movf	(?_getVoltage+1)^(0+128),w
  1991     02CF  1683               	bsf	3,5	;RP0=1, select bank3
  1992     02D0  1703               	bsf	3,6	;RP1=1, select bank3
  1993     02D1  0099               	movwf	(_voltage2+1)^(0+384)
  1994     02D2  1683               	bsf	3,5	;RP0=1, select bank1
  1995     02D3  1303               	bcf	3,6	;RP1=0, select bank1
  1996     02D4  083A               	movf	?_getVoltage^(0+128),w
  1997     02D5  1683               	bsf	3,5	;RP0=1, select bank3
  1998     02D6  1703               	bsf	3,6	;RP1=1, select bank3
  1999     02D7  0098               	movwf	_voltage2^(0+384)
  2000     02D8                     l3003:
  2001                           
  2002                           ;main.c: 559:         static unsigned char relay_state = 0;;main.c: 561:         if(getV
      +                          oltage(2) > 3.0)
  2003     02D8  3040               	movlw	64
  2004     02D9  1683               	bsf	3,5	;RP0=1, select bank1
  2005     02DA  1303               	bcf	3,6	;RP1=0, select bank1
  2006     02DB  00CE               	movwf	(___flge@ff1+3)^(0+128)
  2007     02DC  3040               	movlw	64
  2008     02DD  00CD               	movwf	(___flge@ff1+2)^(0+128)
  2009     02DE  3000               	movlw	0
  2010     02DF  00CC               	movwf	(___flge@ff1+1)^(0+128)
  2011     02E0  3000               	movlw	0
  2012     02E1  00CB               	movwf	___flge@ff1^(0+128)
  2013     02E2  3002               	movlw	2
  2014     02E3  160A  118A  256C  120A  118A  	fcall	_getVoltage
  2015     02E8  1683               	bsf	3,5	;RP0=1, select bank1
  2016     02E9  1303               	bcf	3,6	;RP1=0, select bank1
  2017     02EA  083D               	movf	(?_getVoltage+3)^(0+128),w
  2018     02EB  00D2               	movwf	(___flge@ff2+3)^(0+128)
  2019     02EC  083C               	movf	(?_getVoltage+2)^(0+128),w
  2020     02ED  00D1               	movwf	(___flge@ff2+2)^(0+128)
  2021     02EE  083B               	movf	(?_getVoltage+1)^(0+128),w
  2022     02EF  00D0               	movwf	(___flge@ff2+1)^(0+128)
  2023     02F0  083A               	movf	?_getVoltage^(0+128),w
  2024     02F1  00CF               	movwf	___flge@ff2^(0+128)
  2025     02F2  160A  118A  2348  120A  118A  	fcall	___flge
  2026     02F7  1803               	btfsc	3,0
  2027     02F8  2AFA               	goto	u4471
  2028     02F9  2AFB               	goto	u4470
  2029     02FA                     u4471:
  2030     02FA  2B03               	goto	l247
  2031     02FB                     u4470:
  2032     02FB                     l3005:
  2033                           
  2034                           ;main.c: 562:         {;main.c: 563:             RA4 = 1;
  2035     02FB  1283               	bcf	3,5	;RP0=0, select bank0
  2036     02FC  1303               	bcf	3,6	;RP1=0, select bank0
  2037     02FD  1605               	bsf	5,4	;volatile
  2038                           
  2039                           ;main.c: 564:             relay_state = 1;
  2040     02FE  3001               	movlw	1
  2041     02FF  1683               	bsf	3,5	;RP0=1, select bank3
  2042     0300  1703               	bsf	3,6	;RP1=1, select bank3
  2043     0301  00A1               	movwf	main@relay_state^(0+384)
  2044                           
  2045                           ;main.c: 565:         }
  2046     0302  2B0A               	goto	l3011
  2047     0303                     l247:	
  2048                           ;main.c: 566:         else
  2049                           
  2050                           
  2051                           ;main.c: 567:         {;main.c: 568:             RA4 = 0;
  2052     0303  1283               	bcf	3,5	;RP0=0, select bank0
  2053     0304  1303               	bcf	3,6	;RP1=0, select bank0
  2054     0305  1205               	bcf	5,4	;volatile
  2055     0306                     l3007:
  2056                           
  2057                           ;main.c: 569:             relay_state = 0;
  2058     0306  1683               	bsf	3,5	;RP0=1, select bank3
  2059     0307  1703               	bsf	3,6	;RP1=1, select bank3
  2060     0308  01A1               	clrf	main@relay_state^(0+384)
  2061     0309  2AA8               	goto	l2995
  2062     030A                     l3011:
  2063                           
  2064                           ;main.c: 576:         if(voltage2 >= selected_voltage)
  2065     030A  081B               	movf	(_voltage2+3)^(0+384),w
  2066     030B  1683               	bsf	3,5	;RP0=1, select bank1
  2067     030C  1303               	bcf	3,6	;RP1=0, select bank1
  2068     030D  00CE               	movwf	(___flge@ff1+3)^(0+128)
  2069     030E  1683               	bsf	3,5	;RP0=1, select bank3
  2070     030F  1703               	bsf	3,6	;RP1=1, select bank3
  2071     0310  081A               	movf	(_voltage2+2)^(0+384),w
  2072     0311  1683               	bsf	3,5	;RP0=1, select bank1
  2073     0312  1303               	bcf	3,6	;RP1=0, select bank1
  2074     0313  00CD               	movwf	(___flge@ff1+2)^(0+128)
  2075     0314  1683               	bsf	3,5	;RP0=1, select bank3
  2076     0315  1703               	bsf	3,6	;RP1=1, select bank3
  2077     0316  0819               	movf	(_voltage2+1)^(0+384),w
  2078     0317  1683               	bsf	3,5	;RP0=1, select bank1
  2079     0318  1303               	bcf	3,6	;RP1=0, select bank1
  2080     0319  00CC               	movwf	(___flge@ff1+1)^(0+128)
  2081     031A  1683               	bsf	3,5	;RP0=1, select bank3
  2082     031B  1703               	bsf	3,6	;RP1=1, select bank3
  2083     031C  0818               	movf	_voltage2^(0+384),w
  2084     031D  1683               	bsf	3,5	;RP0=1, select bank1
  2085     031E  1303               	bcf	3,6	;RP1=0, select bank1
  2086     031F  00CB               	movwf	___flge@ff1^(0+128)
  2087     0320  1683               	bsf	3,5	;RP0=1, select bank3
  2088     0321  1703               	bsf	3,6	;RP1=1, select bank3
  2089     0322  0848               	movf	(_selected_voltage+3)^(0+384),w
  2090     0323  1683               	bsf	3,5	;RP0=1, select bank1
  2091     0324  1303               	bcf	3,6	;RP1=0, select bank1
  2092     0325  00D2               	movwf	(___flge@ff2+3)^(0+128)
  2093     0326  1683               	bsf	3,5	;RP0=1, select bank3
  2094     0327  1703               	bsf	3,6	;RP1=1, select bank3
  2095     0328  0847               	movf	(_selected_voltage+2)^(0+384),w
  2096     0329  1683               	bsf	3,5	;RP0=1, select bank1
  2097     032A  1303               	bcf	3,6	;RP1=0, select bank1
  2098     032B  00D1               	movwf	(___flge@ff2+2)^(0+128)
  2099     032C  1683               	bsf	3,5	;RP0=1, select bank3
  2100     032D  1703               	bsf	3,6	;RP1=1, select bank3
  2101     032E  0846               	movf	(_selected_voltage+1)^(0+384),w
  2102     032F  1683               	bsf	3,5	;RP0=1, select bank1
  2103     0330  1303               	bcf	3,6	;RP1=0, select bank1
  2104     0331  00D0               	movwf	(___flge@ff2+1)^(0+128)
  2105     0332  1683               	bsf	3,5	;RP0=1, select bank3
  2106     0333  1703               	bsf	3,6	;RP1=1, select bank3
  2107     0334  0845               	movf	_selected_voltage^(0+384),w
  2108     0335  1683               	bsf	3,5	;RP0=1, select bank1
  2109     0336  1303               	bcf	3,6	;RP1=0, select bank1
  2110     0337  00CF               	movwf	___flge@ff2^(0+128)
  2111     0338  160A  118A  2348  120A  118A  	fcall	___flge
  2112     033D  1C03               	btfss	3,0
  2113     033E  2B40               	goto	u4481
  2114     033F  2B41               	goto	u4480
  2115     0340                     u4481:
  2116     0340  2B4A               	goto	l3017
  2117     0341                     u4480:
  2118     0341                     l3013:
  2119                           
  2120                           ;main.c: 577:         {;main.c: 578:             motor_stop();
  2121     0341  160A  118A  20AA  120A  118A  	fcall	_motor_stop
  2122     0346                     l3015:
  2123                           
  2124                           ;main.c: 580:             system_done = 1;
  2125     0346  3001               	movlw	1
  2126     0347  1683               	bsf	3,5	;RP0=1, select bank1
  2127     0348  1303               	bcf	3,6	;RP1=0, select bank1
  2128     0349  00EA               	movwf	main@system_done^(0+128)
  2129     034A                     l3017:
  2130                           
  2131                           ;main.c: 584:         if(prev_limit == 1 && RA5 == 0)
  2132     034A  1683               	bsf	3,5	;RP0=1, select bank3
  2133     034B  1703               	bsf	3,6	;RP1=1, select bank3
  2134     034C  034B               	decf	main@prev_limit^(0+384),w
  2135     034D  1D03               	btfss	3,2
  2136     034E  2B50               	goto	u4491
  2137     034F  2B51               	goto	u4490
  2138     0350                     u4491:
  2139     0350  2BFB               	goto	l3061
  2140     0351                     u4490:
  2141     0351                     l3019:
  2142     0351  1283               	bcf	3,5	;RP0=0, select bank0
  2143     0352  1303               	bcf	3,6	;RP1=0, select bank0
  2144     0353  1A85               	btfsc	5,5	;volatile
  2145     0354  2B56               	goto	u4501
  2146     0355  2B57               	goto	u4500
  2147     0356                     u4501:
  2148     0356  2BFB               	goto	l3061
  2149     0357                     u4500:
  2150     0357                     l3021:
  2151                           
  2152                           ;main.c: 585:         {;main.c: 586:             _delay((unsigned long)((20)*(8000000/40
      +                          00.0)));
  2153     0357  3034               	movlw	52
  2154     0358  1683               	bsf	3,5	;RP0=1, select bank1
  2155     0359  1303               	bcf	3,6	;RP1=0, select bank1
  2156     035A  00E2               	movwf	(??_main^(0+128)+1)
  2157     035B  30F1               	movlw	241
  2158     035C  00E1               	movwf	??_main^(0+128)
  2159     035D                     u4727:
  2160     035D  0BE1               	decfsz	??_main^(0+128),f
  2161     035E  2B5D               	goto	u4727
  2162     035F  0BE2               	decfsz	(??_main^(0+128)+1),f
  2163     0360  2B5D               	goto	u4727
  2164     0361                     l3023:
  2165                           
  2166                           ;main.c: 588:             if(RA5 == 0)
  2167     0361  1283               	bcf	3,5	;RP0=0, select bank0
  2168     0362  1303               	bcf	3,6	;RP1=0, select bank0
  2169     0363  1A85               	btfsc	5,5	;volatile
  2170     0364  2B66               	goto	u4511
  2171     0365  2B67               	goto	u4510
  2172     0366                     u4511:
  2173     0366  2BFB               	goto	l3061
  2174     0367                     u4510:
  2175     0367                     l3025:
  2176                           
  2177                           ;main.c: 589:             {;main.c: 590:                 if(stage == 0 && direction == 1
      +                          )
  2178     0367  087C               	movf	_stage,w
  2179     0368  1D03               	btfss	3,2
  2180     0369  2B6B               	goto	u4521
  2181     036A  2B6C               	goto	u4520
  2182     036B                     u4521:
  2183     036B  2BBA               	goto	l3043
  2184     036C                     u4520:
  2185     036C                     l3027:
  2186     036C  1683               	bsf	3,5	;RP0=1, select bank1
  2187     036D  1303               	bcf	3,6	;RP1=0, select bank1
  2188     036E  036B               	decf	_direction^(0+128),w	;volatile
  2189     036F  1D03               	btfss	3,2
  2190     0370  2B72               	goto	u4531
  2191     0371  2B73               	goto	u4530
  2192     0372                     u4531:
  2193     0372  2BBA               	goto	l3043
  2194     0373                     u4530:
  2195     0373                     l3029:
  2196                           
  2197                           ;main.c: 591:                 {;main.c: 592:                     motor_stop();
  2198     0373  160A  118A  20AA  120A  118A  	fcall	_motor_stop
  2199     0378                     l3031:
  2200                           
  2201                           ;main.c: 593:                     _delay((unsigned long)((100)*(8000000/4000.0)));
  2202     0378  3002               	movlw	2
  2203     0379  1683               	bsf	3,5	;RP0=1, select bank1
  2204     037A  1303               	bcf	3,6	;RP1=0, select bank1
  2205     037B  00E3               	movwf	(??_main^(0+128)+2)
  2206     037C  3004               	movlw	4
  2207     037D  00E2               	movwf	(??_main^(0+128)+1)
  2208     037E  30B9               	movlw	185
  2209     037F  00E1               	movwf	??_main^(0+128)
  2210     0380                     u4737:
  2211     0380  0BE1               	decfsz	??_main^(0+128),f
  2212     0381  2B80               	goto	u4737
  2213     0382  0BE2               	decfsz	(??_main^(0+128)+1),f
  2214     0383  2B80               	goto	u4737
  2215     0384  0BE3               	decfsz	(??_main^(0+128)+2),f
  2216     0385  2B80               	goto	u4737
  2217     0386  2B87               	nop2
  2218     0387                     l3033:
  2219                           
  2220                           ;main.c: 595:                     motor_reverse();
  2221     0387  120A  158A  2001  120A  118A  	fcall	_motor_reverse
  2222                           
  2223                           ;main.c: 596:                     _delay((unsigned long)((200)*(8000000/4000.0)));
  2224     038C  3003               	movlw	3
  2225     038D  1683               	bsf	3,5	;RP0=1, select bank1
  2226     038E  1303               	bcf	3,6	;RP1=0, select bank1
  2227     038F  00E3               	movwf	(??_main^(0+128)+2)
  2228     0390  3008               	movlw	8
  2229     0391  00E2               	movwf	(??_main^(0+128)+1)
  2230     0392  3076               	movlw	118
  2231     0393  00E1               	movwf	??_main^(0+128)
  2232     0394                     u4747:
  2233     0394  0BE1               	decfsz	??_main^(0+128),f
  2234     0395  2B94               	goto	u4747
  2235     0396  0BE2               	decfsz	(??_main^(0+128)+1),f
  2236     0397  2B94               	goto	u4747
  2237     0398  0BE3               	decfsz	(??_main^(0+128)+2),f
  2238     0399  2B94               	goto	u4747
  2239     039A  0000               	nop
  2240     039B                     l3035:
  2241                           
  2242                           ;main.c: 598:                     motor_stop();
  2243     039B  160A  118A  20AA  120A  118A  	fcall	_motor_stop
  2244     03A0                     l3037:
  2245                           
  2246                           ;main.c: 599:                     _delay((unsigned long)((500)*(8000000/4000.0)));
  2247     03A0  3006               	movlw	6
  2248     03A1  1683               	bsf	3,5	;RP0=1, select bank1
  2249     03A2  1303               	bcf	3,6	;RP1=0, select bank1
  2250     03A3  00E3               	movwf	(??_main^(0+128)+2)
  2251     03A4  3013               	movlw	19
  2252     03A5  00E2               	movwf	(??_main^(0+128)+1)
  2253     03A6  30AD               	movlw	173
  2254     03A7  00E1               	movwf	??_main^(0+128)
  2255     03A8                     u4757:
  2256     03A8  0BE1               	decfsz	??_main^(0+128),f
  2257     03A9  2BA8               	goto	u4757
  2258     03AA  0BE2               	decfsz	(??_main^(0+128)+1),f
  2259     03AB  2BA8               	goto	u4757
  2260     03AC  0BE3               	decfsz	(??_main^(0+128)+2),f
  2261     03AD  2BA8               	goto	u4757
  2262                           
  2263                           ;main.c: 601:                     motor_reverse();
  2264     03AE  120A  158A  2001  120A  118A  	fcall	_motor_reverse
  2265     03B3                     l3039:
  2266                           
  2267                           ;main.c: 603:                     stage = 1;
  2268     03B3  3001               	movlw	1
  2269     03B4  00FC               	movwf	_stage
  2270     03B5                     l3041:
  2271                           
  2272                           ;main.c: 604:                     limit_active = 1;
  2273     03B5  3001               	movlw	1
  2274     03B6  1683               	bsf	3,5	;RP0=1, select bank1
  2275     03B7  1303               	bcf	3,6	;RP1=0, select bank1
  2276     03B8  00E5               	movwf	main@limit_active^(0+128)
  2277                           
  2278                           ;main.c: 605:                 }
  2279     03B9  2BFB               	goto	l3061
  2280     03BA                     l3043:
  2281     03BA  037C               	decf	_stage,w
  2282     03BB  1D03               	btfss	3,2
  2283     03BC  2BBE               	goto	u4541
  2284     03BD  2BBF               	goto	u4540
  2285     03BE                     u4541:
  2286     03BE  2BFB               	goto	l3061
  2287     03BF                     u4540:
  2288     03BF                     l3045:
  2289     03BF  3002               	movlw	2
  2290     03C0  1683               	bsf	3,5	;RP0=1, select bank1
  2291     03C1  1303               	bcf	3,6	;RP1=0, select bank1
  2292     03C2  066B               	xorwf	_direction^(0+128),w	;volatile
  2293     03C3  1D03               	btfss	3,2
  2294     03C4  2BC6               	goto	u4551
  2295     03C5  2BC7               	goto	u4550
  2296     03C6                     u4551:
  2297     03C6  2BFB               	goto	l3061
  2298     03C7                     u4550:
  2299     03C7                     l3047:
  2300                           
  2301                           ;main.c: 607:                 {;main.c: 608:                     motor_stop();
  2302     03C7  160A  118A  20AA  120A  118A  	fcall	_motor_stop
  2303     03CC                     l3049:
  2304                           
  2305                           ;main.c: 609:                     _delay((unsigned long)((100)*(8000000/4000.0)));
  2306     03CC  3002               	movlw	2
  2307     03CD  1683               	bsf	3,5	;RP0=1, select bank1
  2308     03CE  1303               	bcf	3,6	;RP1=0, select bank1
  2309     03CF  00E3               	movwf	(??_main^(0+128)+2)
  2310     03D0  3004               	movlw	4
  2311     03D1  00E2               	movwf	(??_main^(0+128)+1)
  2312     03D2  30B9               	movlw	185
  2313     03D3  00E1               	movwf	??_main^(0+128)
  2314     03D4                     u4767:
  2315     03D4  0BE1               	decfsz	??_main^(0+128),f
  2316     03D5  2BD4               	goto	u4767
  2317     03D6  0BE2               	decfsz	(??_main^(0+128)+1),f
  2318     03D7  2BD4               	goto	u4767
  2319     03D8  0BE3               	decfsz	(??_main^(0+128)+2),f
  2320     03D9  2BD4               	goto	u4767
  2321     03DA  2BDB               	nop2
  2322     03DB                     l3051:
  2323                           
  2324                           ;main.c: 611:                     motor_forward();
  2325     03DB  160A  118A  20B7  120A  118A  	fcall	_motor_forward
  2326                           
  2327                           ;main.c: 612:                     _delay((unsigned long)((200)*(8000000/4000.0)));
  2328     03E0  3003               	movlw	3
  2329     03E1  1683               	bsf	3,5	;RP0=1, select bank1
  2330     03E2  1303               	bcf	3,6	;RP1=0, select bank1
  2331     03E3  00E3               	movwf	(??_main^(0+128)+2)
  2332     03E4  3008               	movlw	8
  2333     03E5  00E2               	movwf	(??_main^(0+128)+1)
  2334     03E6  3076               	movlw	118
  2335     03E7  00E1               	movwf	??_main^(0+128)
  2336     03E8                     u4777:
  2337     03E8  0BE1               	decfsz	??_main^(0+128),f
  2338     03E9  2BE8               	goto	u4777
  2339     03EA  0BE2               	decfsz	(??_main^(0+128)+1),f
  2340     03EB  2BE8               	goto	u4777
  2341     03EC  0BE3               	decfsz	(??_main^(0+128)+2),f
  2342     03ED  2BE8               	goto	u4777
  2343     03EE  0000               	nop
  2344     03EF                     l3053:
  2345                           
  2346                           ;main.c: 614:                     motor_stop();
  2347     03EF  160A  118A  20AA  120A  118A  	fcall	_motor_stop
  2348     03F4                     l3055:
  2349                           
  2350                           ;main.c: 616:                     stage = 2;
  2351     03F4  3002               	movlw	2
  2352     03F5  00FC               	movwf	_stage
  2353     03F6                     l3057:
  2354                           
  2355                           ;main.c: 617:                     system_done = 1;
  2356     03F6  3001               	movlw	1
  2357     03F7  1683               	bsf	3,5	;RP0=1, select bank1
  2358     03F8  1303               	bcf	3,6	;RP1=0, select bank1
  2359     03F9  00EA               	movwf	main@system_done^(0+128)
  2360     03FA                     l3059:
  2361                           
  2362                           ;main.c: 618:                     limit_active = 0;
  2363     03FA  01E5               	clrf	main@limit_active^(0+128)
  2364     03FB                     l3061:
  2365                           
  2366                           ;main.c: 622:         prev_limit = RA5;
  2367     03FB  3000               	movlw	0
  2368     03FC  1283               	bcf	3,5	;RP0=0, select bank0
  2369     03FD  1303               	bcf	3,6	;RP1=0, select bank0
  2370     03FE  1A85               	btfsc	5,5	;volatile
  2371     03FF  3001               	movlw	1
  2372     0400  1683               	bsf	3,5	;RP0=1, select bank3
  2373     0401  1703               	bsf	3,6	;RP1=1, select bank3
  2374     0402  00CB               	movwf	main@prev_limit^(0+384)
  2375     0403                     l3063:
  2376                           
  2377                           ;main.c: 625:         if(RA5 == 1 && limit_active == 0 && system_done == 0 && RA4 == 1)
  2378     0403  1283               	bcf	3,5	;RP0=0, select bank0
  2379     0404  1303               	bcf	3,6	;RP1=0, select bank0
  2380     0405  1E85               	btfss	5,5	;volatile
  2381     0406  2C08               	goto	u4561
  2382     0407  2C09               	goto	u4560
  2383     0408                     u4561:
  2384     0408  2D0D               	goto	l3089
  2385     0409                     u4560:
  2386     0409                     l3065:
  2387     0409  1683               	bsf	3,5	;RP0=1, select bank1
  2388     040A  1303               	bcf	3,6	;RP1=0, select bank1
  2389     040B  0865               	movf	main@limit_active^(0+128),w
  2390     040C  1D03               	btfss	3,2
  2391     040D  2C0F               	goto	u4571
  2392     040E  2C10               	goto	u4570
  2393     040F                     u4571:
  2394     040F  2D0D               	goto	l3089
  2395     0410                     u4570:
  2396     0410                     l3067:
  2397     0410  086A               	movf	main@system_done^(0+128),w
  2398     0411  1D03               	btfss	3,2
  2399     0412  2C14               	goto	u4581
  2400     0413  2C15               	goto	u4580
  2401     0414                     u4581:
  2402     0414  2D0D               	goto	l3089
  2403     0415                     u4580:
  2404     0415                     l3069:
  2405     0415  1283               	bcf	3,5	;RP0=0, select bank0
  2406     0416  1303               	bcf	3,6	;RP1=0, select bank0
  2407     0417  1E05               	btfss	5,4	;volatile
  2408     0418  2C1A               	goto	u4591
  2409     0419  2C1B               	goto	u4590
  2410     041A                     u4591:
  2411     041A  2D0D               	goto	l3089
  2412     041B                     u4590:
  2413     041B                     l3071:
  2414                           
  2415                           ;main.c: 626:         {;main.c: 628:             tar_vol = getAmps(0);
  2416     041B  3000               	movlw	0
  2417     041C  160A  118A  24A2  120A  118A  	fcall	_getAmps
  2418     0421  1683               	bsf	3,5	;RP0=1, select bank1
  2419     0422  1303               	bcf	3,6	;RP1=0, select bank1
  2420     0423  083D               	movf	(?_getAmps+3)^(0+128),w
  2421     0424  1683               	bsf	3,5	;RP0=1, select bank3
  2422     0425  1703               	bsf	3,6	;RP1=1, select bank3
  2423     0426  0097               	movwf	(_tar_vol+3)^(0+384)
  2424     0427  1683               	bsf	3,5	;RP0=1, select bank1
  2425     0428  1303               	bcf	3,6	;RP1=0, select bank1
  2426     0429  083C               	movf	(?_getAmps+2)^(0+128),w
  2427     042A  1683               	bsf	3,5	;RP0=1, select bank3
  2428     042B  1703               	bsf	3,6	;RP1=1, select bank3
  2429     042C  0096               	movwf	(_tar_vol+2)^(0+384)
  2430     042D  1683               	bsf	3,5	;RP0=1, select bank1
  2431     042E  1303               	bcf	3,6	;RP1=0, select bank1
  2432     042F  083B               	movf	(?_getAmps+1)^(0+128),w
  2433     0430  1683               	bsf	3,5	;RP0=1, select bank3
  2434     0431  1703               	bsf	3,6	;RP1=1, select bank3
  2435     0432  0095               	movwf	(_tar_vol+1)^(0+384)
  2436     0433  1683               	bsf	3,5	;RP0=1, select bank1
  2437     0434  1303               	bcf	3,6	;RP1=0, select bank1
  2438     0435  083A               	movf	?_getAmps^(0+128),w
  2439     0436  1683               	bsf	3,5	;RP0=1, select bank3
  2440     0437  1703               	bsf	3,6	;RP1=1, select bank3
  2441     0438  0094               	movwf	_tar_vol^(0+384)
  2442                           
  2443                           ;main.c: 629:             ref_vol = getAmps(1);
  2444     0439  3001               	movlw	1
  2445     043A  160A  118A  24A2  120A  118A  	fcall	_getAmps
  2446     043F  1683               	bsf	3,5	;RP0=1, select bank1
  2447     0440  1303               	bcf	3,6	;RP1=0, select bank1
  2448     0441  083D               	movf	(?_getAmps+3)^(0+128),w
  2449     0442  1683               	bsf	3,5	;RP0=1, select bank3
  2450     0443  1703               	bsf	3,6	;RP1=1, select bank3
  2451     0444  0093               	movwf	(_ref_vol+3)^(0+384)
  2452     0445  1683               	bsf	3,5	;RP0=1, select bank1
  2453     0446  1303               	bcf	3,6	;RP1=0, select bank1
  2454     0447  083C               	movf	(?_getAmps+2)^(0+128),w
  2455     0448  1683               	bsf	3,5	;RP0=1, select bank3
  2456     0449  1703               	bsf	3,6	;RP1=1, select bank3
  2457     044A  0092               	movwf	(_ref_vol+2)^(0+384)
  2458     044B  1683               	bsf	3,5	;RP0=1, select bank1
  2459     044C  1303               	bcf	3,6	;RP1=0, select bank1
  2460     044D  083B               	movf	(?_getAmps+1)^(0+128),w
  2461     044E  1683               	bsf	3,5	;RP0=1, select bank3
  2462     044F  1703               	bsf	3,6	;RP1=1, select bank3
  2463     0450  0091               	movwf	(_ref_vol+1)^(0+384)
  2464     0451  1683               	bsf	3,5	;RP0=1, select bank1
  2465     0452  1303               	bcf	3,6	;RP1=0, select bank1
  2466     0453  083A               	movf	?_getAmps^(0+128),w
  2467     0454  1683               	bsf	3,5	;RP0=1, select bank3
  2468     0455  1703               	bsf	3,6	;RP1=1, select bank3
  2469     0456  0090               	movwf	_ref_vol^(0+384)
  2470                           
  2471                           ;main.c: 630:             float error = (float)tar_vol - (float)ref_vol;
  2472     0457  0813               	movf	(_ref_vol+3)^(0+384),w
  2473     0458  1283               	bcf	3,5	;RP0=0, select bank0
  2474     0459  1303               	bcf	3,6	;RP1=0, select bank0
  2475     045A  00CF               	movwf	___flsub@a+3
  2476     045B  1683               	bsf	3,5	;RP0=1, select bank3
  2477     045C  1703               	bsf	3,6	;RP1=1, select bank3
  2478     045D  0812               	movf	(_ref_vol+2)^(0+384),w
  2479     045E  1283               	bcf	3,5	;RP0=0, select bank0
  2480     045F  1303               	bcf	3,6	;RP1=0, select bank0
  2481     0460  00CE               	movwf	___flsub@a+2
  2482     0461  1683               	bsf	3,5	;RP0=1, select bank3
  2483     0462  1703               	bsf	3,6	;RP1=1, select bank3
  2484     0463  0811               	movf	(_ref_vol+1)^(0+384),w
  2485     0464  1283               	bcf	3,5	;RP0=0, select bank0
  2486     0465  1303               	bcf	3,6	;RP1=0, select bank0
  2487     0466  00CD               	movwf	___flsub@a+1
  2488     0467  1683               	bsf	3,5	;RP0=1, select bank3
  2489     0468  1703               	bsf	3,6	;RP1=1, select bank3
  2490     0469  0810               	movf	_ref_vol^(0+384),w
  2491     046A  1283               	bcf	3,5	;RP0=0, select bank0
  2492     046B  1303               	bcf	3,6	;RP1=0, select bank0
  2493     046C  00CC               	movwf	___flsub@a
  2494     046D  1683               	bsf	3,5	;RP0=1, select bank3
  2495     046E  1703               	bsf	3,6	;RP1=1, select bank3
  2496     046F  0817               	movf	(_tar_vol+3)^(0+384),w
  2497     0470  1283               	bcf	3,5	;RP0=0, select bank0
  2498     0471  1303               	bcf	3,6	;RP1=0, select bank0
  2499     0472  00D3               	movwf	___flsub@b+3
  2500     0473  1683               	bsf	3,5	;RP0=1, select bank3
  2501     0474  1703               	bsf	3,6	;RP1=1, select bank3
  2502     0475  0816               	movf	(_tar_vol+2)^(0+384),w
  2503     0476  1283               	bcf	3,5	;RP0=0, select bank0
  2504     0477  1303               	bcf	3,6	;RP1=0, select bank0
  2505     0478  00D2               	movwf	___flsub@b+2
  2506     0479  1683               	bsf	3,5	;RP0=1, select bank3
  2507     047A  1703               	bsf	3,6	;RP1=1, select bank3
  2508     047B  0815               	movf	(_tar_vol+1)^(0+384),w
  2509     047C  1283               	bcf	3,5	;RP0=0, select bank0
  2510     047D  1303               	bcf	3,6	;RP1=0, select bank0
  2511     047E  00D1               	movwf	___flsub@b+1
  2512     047F  1683               	bsf	3,5	;RP0=1, select bank3
  2513     0480  1703               	bsf	3,6	;RP1=1, select bank3
  2514     0481  0814               	movf	_tar_vol^(0+384),w
  2515     0482  1283               	bcf	3,5	;RP0=0, select bank0
  2516     0483  1303               	bcf	3,6	;RP1=0, select bank0
  2517     0484  00D0               	movwf	___flsub@b
  2518     0485  160A  118A  212F  120A  118A  	fcall	___flsub
  2519     048A  1283               	bcf	3,5	;RP0=0, select bank0
  2520     048B  1303               	bcf	3,6	;RP1=0, select bank0
  2521     048C  084F               	movf	?___flsub+3,w
  2522     048D  1683               	bsf	3,5	;RP0=1, select bank1
  2523     048E  1303               	bcf	3,6	;RP1=0, select bank1
  2524     048F  00E9               	movwf	(main@error+3)^(0+128)
  2525     0490  1283               	bcf	3,5	;RP0=0, select bank0
  2526     0491  1303               	bcf	3,6	;RP1=0, select bank0
  2527     0492  084E               	movf	?___flsub+2,w
  2528     0493  1683               	bsf	3,5	;RP0=1, select bank1
  2529     0494  1303               	bcf	3,6	;RP1=0, select bank1
  2530     0495  00E8               	movwf	(main@error+2)^(0+128)
  2531     0496  1283               	bcf	3,5	;RP0=0, select bank0
  2532     0497  1303               	bcf	3,6	;RP1=0, select bank0
  2533     0498  084D               	movf	?___flsub+1,w
  2534     0499  1683               	bsf	3,5	;RP0=1, select bank1
  2535     049A  1303               	bcf	3,6	;RP1=0, select bank1
  2536     049B  00E7               	movwf	(main@error+1)^(0+128)
  2537     049C  1283               	bcf	3,5	;RP0=0, select bank0
  2538     049D  1303               	bcf	3,6	;RP1=0, select bank0
  2539     049E  084C               	movf	?___flsub,w
  2540     049F  1683               	bsf	3,5	;RP0=1, select bank1
  2541     04A0  1303               	bcf	3,6	;RP1=0, select bank1
  2542     04A1  00E6               	movwf	main@error^(0+128)
  2543     04A2                     l3073:
  2544                           
  2545                           ;main.c: 631:            static unsigned char stopped = 0;;main.c: 633:             if(e
      +                          rror < 0.8 && error > -0.8)
  2546     04A2  0869               	movf	(main@error+3)^(0+128),w
  2547     04A3  00CE               	movwf	(___flge@ff1+3)^(0+128)
  2548     04A4  0868               	movf	(main@error+2)^(0+128),w
  2549     04A5  00CD               	movwf	(___flge@ff1+2)^(0+128)
  2550     04A6  0867               	movf	(main@error+1)^(0+128),w
  2551     04A7  00CC               	movwf	(___flge@ff1+1)^(0+128)
  2552     04A8  0866               	movf	main@error^(0+128),w
  2553     04A9  00CB               	movwf	___flge@ff1^(0+128)
  2554     04AA  303F               	movlw	63
  2555     04AB  00D2               	movwf	(___flge@ff2+3)^(0+128)
  2556     04AC  304C               	movlw	76
  2557     04AD  00D1               	movwf	(___flge@ff2+2)^(0+128)
  2558     04AE  30CC               	movlw	204
  2559     04AF  00D0               	movwf	(___flge@ff2+1)^(0+128)
  2560     04B0  30CD               	movlw	205
  2561     04B1  00CF               	movwf	___flge@ff2^(0+128)
  2562     04B2  160A  118A  2348  120A  118A  	fcall	___flge
  2563     04B7  1803               	btfsc	3,0
  2564     04B8  2CBA               	goto	u4601
  2565     04B9  2CBB               	goto	u4600
  2566     04BA                     u4601:
  2567     04BA  2CE0               	goto	l3081
  2568     04BB                     u4600:
  2569     04BB                     l3075:
  2570     04BB  30BF               	movlw	191
  2571     04BC  1683               	bsf	3,5	;RP0=1, select bank1
  2572     04BD  1303               	bcf	3,6	;RP1=0, select bank1
  2573     04BE  00CE               	movwf	(___flge@ff1+3)^(0+128)
  2574     04BF  304C               	movlw	76
  2575     04C0  00CD               	movwf	(___flge@ff1+2)^(0+128)
  2576     04C1  30CC               	movlw	204
  2577     04C2  00CC               	movwf	(___flge@ff1+1)^(0+128)
  2578     04C3  30CD               	movlw	205
  2579     04C4  00CB               	movwf	___flge@ff1^(0+128)
  2580     04C5  0869               	movf	(main@error+3)^(0+128),w
  2581     04C6  00D2               	movwf	(___flge@ff2+3)^(0+128)
  2582     04C7  0868               	movf	(main@error+2)^(0+128),w
  2583     04C8  00D1               	movwf	(___flge@ff2+2)^(0+128)
  2584     04C9  0867               	movf	(main@error+1)^(0+128),w
  2585     04CA  00D0               	movwf	(___flge@ff2+1)^(0+128)
  2586     04CB  0866               	movf	main@error^(0+128),w
  2587     04CC  00CF               	movwf	___flge@ff2^(0+128)
  2588     04CD  160A  118A  2348  120A  118A  	fcall	___flge
  2589     04D2  1803               	btfsc	3,0
  2590     04D3  2CD5               	goto	u4611
  2591     04D4  2CD6               	goto	u4610
  2592     04D5                     u4611:
  2593     04D5  2CE0               	goto	l3081
  2594     04D6                     u4610:
  2595     04D6                     l3077:
  2596                           
  2597                           ;main.c: 634:             {;main.c: 635:                 motor_stop();
  2598     04D6  160A  118A  20AA  120A  118A  	fcall	_motor_stop
  2599     04DB                     l3079:
  2600                           
  2601                           ;main.c: 636:                 stopped = 1;
  2602     04DB  3001               	movlw	1
  2603     04DC  1683               	bsf	3,5	;RP0=1, select bank3
  2604     04DD  1703               	bsf	3,6	;RP1=1, select bank3
  2605     04DE  00A0               	movwf	main@stopped^(0+384)
  2606                           
  2607                           ;main.c: 637:             }
  2608     04DF  2D0D               	goto	l3089
  2609     04E0                     l3081:
  2610     04E0  1683               	bsf	3,5	;RP0=1, select bank3
  2611     04E1  1703               	bsf	3,6	;RP1=1, select bank3
  2612     04E2  0820               	movf	main@stopped^(0+384),w
  2613     04E3  1D03               	btfss	3,2
  2614     04E4  2CE6               	goto	u4621
  2615     04E5  2CE7               	goto	u4620
  2616     04E6                     u4621:
  2617     04E6  2D0D               	goto	l3089
  2618     04E7                     u4620:
  2619     04E7                     l3083:
  2620                           
  2621                           ;main.c: 639:             {;main.c: 640:                 if(error > 0)
  2622     04E7  3000               	movlw	0
  2623     04E8  1683               	bsf	3,5	;RP0=1, select bank1
  2624     04E9  1303               	bcf	3,6	;RP1=0, select bank1
  2625     04EA  00CE               	movwf	(___flge@ff1+3)^(0+128)
  2626     04EB  3000               	movlw	0
  2627     04EC  00CD               	movwf	(___flge@ff1+2)^(0+128)
  2628     04ED  3000               	movlw	0
  2629     04EE  00CC               	movwf	(___flge@ff1+1)^(0+128)
  2630     04EF  3000               	movlw	0
  2631     04F0  00CB               	movwf	___flge@ff1^(0+128)
  2632     04F1  0869               	movf	(main@error+3)^(0+128),w
  2633     04F2  00D2               	movwf	(___flge@ff2+3)^(0+128)
  2634     04F3  0868               	movf	(main@error+2)^(0+128),w
  2635     04F4  00D1               	movwf	(___flge@ff2+2)^(0+128)
  2636     04F5  0867               	movf	(main@error+1)^(0+128),w
  2637     04F6  00D0               	movwf	(___flge@ff2+1)^(0+128)
  2638     04F7  0866               	movf	main@error^(0+128),w
  2639     04F8  00CF               	movwf	___flge@ff2^(0+128)
  2640     04F9  160A  118A  2348  120A  118A  	fcall	___flge
  2641     04FE  1803               	btfsc	3,0
  2642     04FF  2D01               	goto	u4631
  2643     0500  2D02               	goto	u4630
  2644     0501                     u4631:
  2645     0501  2D08               	goto	l3087
  2646     0502                     u4630:
  2647     0502                     l3085:
  2648                           
  2649                           ;main.c: 641:                     motor_forward();
  2650     0502  160A  118A  20B7  120A  118A  	fcall	_motor_forward
  2651     0507  2D0D               	goto	l3089
  2652     0508                     l3087:
  2653                           
  2654                           ;main.c: 643:                     motor_reverse();
  2655     0508  120A  158A  2001  120A  118A  	fcall	_motor_reverse
  2656     050D                     l3089:
  2657                           
  2658                           ;main.c: 648:         voltage2 = getVoltage(2);
  2659     050D  3002               	movlw	2
  2660     050E  160A  118A  256C  120A  118A  	fcall	_getVoltage
  2661     0513  1683               	bsf	3,5	;RP0=1, select bank1
  2662     0514  1303               	bcf	3,6	;RP1=0, select bank1
  2663     0515  083D               	movf	(?_getVoltage+3)^(0+128),w
  2664     0516  1683               	bsf	3,5	;RP0=1, select bank3
  2665     0517  1703               	bsf	3,6	;RP1=1, select bank3
  2666     0518  009B               	movwf	(_voltage2+3)^(0+384)
  2667     0519  1683               	bsf	3,5	;RP0=1, select bank1
  2668     051A  1303               	bcf	3,6	;RP1=0, select bank1
  2669     051B  083C               	movf	(?_getVoltage+2)^(0+128),w
  2670     051C  1683               	bsf	3,5	;RP0=1, select bank3
  2671     051D  1703               	bsf	3,6	;RP1=1, select bank3
  2672     051E  009A               	movwf	(_voltage2+2)^(0+384)
  2673     051F  1683               	bsf	3,5	;RP0=1, select bank1
  2674     0520  1303               	bcf	3,6	;RP1=0, select bank1
  2675     0521  083B               	movf	(?_getVoltage+1)^(0+128),w
  2676     0522  1683               	bsf	3,5	;RP0=1, select bank3
  2677     0523  1703               	bsf	3,6	;RP1=1, select bank3
  2678     0524  0099               	movwf	(_voltage2+1)^(0+384)
  2679     0525  1683               	bsf	3,5	;RP0=1, select bank1
  2680     0526  1303               	bcf	3,6	;RP1=0, select bank1
  2681     0527  083A               	movf	?_getVoltage^(0+128),w
  2682     0528  1683               	bsf	3,5	;RP0=1, select bank3
  2683     0529  1703               	bsf	3,6	;RP1=1, select bank3
  2684     052A  0098               	movwf	_voltage2^(0+384)
  2685     052B                     l3091:
  2686                           
  2687                           ;main.c: 649:         splitFloat(voltage2 ,&ts1 ,&ts2 ,&ts3 ,&ts4);
  2688     052B  081B               	movf	(_voltage2+3)^(0+384),w
  2689     052C  1683               	bsf	3,5	;RP0=1, select bank1
  2690     052D  1303               	bcf	3,6	;RP1=0, select bank1
  2691     052E  00DA               	movwf	(splitFloat@val+3)^(0+128)
  2692     052F  1683               	bsf	3,5	;RP0=1, select bank3
  2693     0530  1703               	bsf	3,6	;RP1=1, select bank3
  2694     0531  081A               	movf	(_voltage2+2)^(0+384),w
  2695     0532  1683               	bsf	3,5	;RP0=1, select bank1
  2696     0533  1303               	bcf	3,6	;RP1=0, select bank1
  2697     0534  00D9               	movwf	(splitFloat@val+2)^(0+128)
  2698     0535  1683               	bsf	3,5	;RP0=1, select bank3
  2699     0536  1703               	bsf	3,6	;RP1=1, select bank3
  2700     0537  0819               	movf	(_voltage2+1)^(0+384),w
  2701     0538  1683               	bsf	3,5	;RP0=1, select bank1
  2702     0539  1303               	bcf	3,6	;RP1=0, select bank1
  2703     053A  00D8               	movwf	(splitFloat@val+1)^(0+128)
  2704     053B  1683               	bsf	3,5	;RP0=1, select bank3
  2705     053C  1703               	bsf	3,6	;RP1=1, select bank3
  2706     053D  0818               	movf	_voltage2^(0+384),w
  2707     053E  1683               	bsf	3,5	;RP0=1, select bank1
  2708     053F  1303               	bcf	3,6	;RP1=0, select bank1
  2709     0540  00D7               	movwf	splitFloat@val^(0+128)
  2710     0541  30B0               	movlw	(low (_ts1| (0+256)))& (0+255)
  2711     0542  00DB               	movwf	splitFloat@d_1000^(0+128)
  2712     0543  30AF               	movlw	(low (_ts2| (0+256)))& (0+255)
  2713     0544  00DC               	movwf	splitFloat@d_100^(0+128)
  2714     0545  30AE               	movlw	(low (_ts3| (0+256)))& (0+255)
  2715     0546  00DD               	movwf	splitFloat@d_10^(0+128)
  2716     0547  30AD               	movlw	(low (_ts4| (0+256)))& (0+255)
  2717     0548  00DE               	movwf	splitFloat@d_1^(0+128)
  2718     0549  120A  158A  237A  120A  118A  	fcall	_splitFloat
  2719     054E                     l3093:
  2720                           
  2721                           ;main.c: 650:         outputOk = 1;
  2722     054E  3001               	movlw	1
  2723     054F  1683               	bsf	3,5	;RP0=1, select bank3
  2724     0550  1703               	bsf	3,6	;RP1=1, select bank3
  2725     0551  00A9               	movwf	_outputOk^(0+384)
  2726     0552                     l3095:
  2727                           
  2728                           ;main.c: 653:         if(system_done == 1)
  2729     0552  1683               	bsf	3,5	;RP0=1, select bank1
  2730     0553  1303               	bcf	3,6	;RP1=0, select bank1
  2731     0554  036A               	decf	main@system_done^(0+128),w
  2732     0555  1D03               	btfss	3,2
  2733     0556  2D58               	goto	u4641
  2734     0557  2D59               	goto	u4640
  2735     0558                     u4641:
  2736     0558  2870               	goto	l2867
  2737     0559                     u4640:
  2738     0559  2AA8               	goto	l2995
  2739     055A  120A  118A  280C   	ljmp	start
  2740     055D                     __end_of_main:
  2741                           
  2742                           	psect	text1
  2743     10C1                     __ptext1:	
  2744 ;; *************** function _timer_conf *****************
  2745 ;; Defined at:
  2746 ;;		line 159 in file "main.c"
  2747 ;; Parameters:    Size  Location     Type
  2748 ;;		None
  2749 ;; Auto vars:     Size  Location     Type
  2750 ;;		None
  2751 ;; Return value:  Size  Location     Type
  2752 ;;                  1    wreg      void 
  2753 ;; Registers used:
  2754 ;;		None
  2755 ;; Tracked objects:
  2756 ;;		On entry : 0/0
  2757 ;;		On exit  : 0/0
  2758 ;;		Unchanged: 0/0
  2759 ;; Data sizes:     COMMON   BANK0   BANK1   BANK3   BANK2
  2760 ;;      Params:         0       0       0       0       0
  2761 ;;      Locals:         0       0       0       0       0
  2762 ;;      Temps:          0       0       0       0       0
  2763 ;;      Totals:         0       0       0       0       0
  2764 ;;Total ram usage:        0 bytes
  2765 ;; Hardware stack levels used: 1
  2766 ;; Hardware stack levels required when called: 2
  2767 ;; This function calls:
  2768 ;;		Nothing
  2769 ;; This function is called by:
  2770 ;;		_main
  2771 ;; This function uses a non-reentrant model
  2772 ;;
  2773                           
  2774     10C1                     _timer_conf:	
  2775                           ;psect for function _timer_conf
  2776                           
  2777     10C1                     l2685:	
  2778                           ;incstack = 0
  2779                           ; Regs used in _timer_conf: []
  2780                           
  2781                           
  2782                           ;main.c: 161:     T1CON = 0x01;
  2783     10C1  3001               	movlw	1
  2784     10C2  1283               	bcf	3,5	;RP0=0, select bank0
  2785     10C3  1303               	bcf	3,6	;RP1=0, select bank0
  2786     10C4  0090               	movwf	16	;volatile
  2787                           
  2788                           ;main.c: 163:     TMR1H = 0xF0;
  2789     10C5  30F0               	movlw	240
  2790     10C6  008F               	movwf	15	;volatile
  2791                           
  2792                           ;main.c: 164:     TMR1L = 0x60;
  2793     10C7  3060               	movlw	96
  2794     10C8  008E               	movwf	14	;volatile
  2795                           
  2796                           ;main.c: 166:     TMR1IF = 0;
  2797     10C9  100C               	bcf	12,0	;volatile
  2798                           
  2799                           ;main.c: 167:     TMR1IE = 1;
  2800     10CA  1683               	bsf	3,5	;RP0=1, select bank1
  2801     10CB  1303               	bcf	3,6	;RP1=0, select bank1
  2802     10CC  140C               	bsf	12,0	;volatile
  2803                           
  2804                           ;main.c: 168:     PEIE = 1;
  2805     10CD  170B               	bsf	11,6	;volatile
  2806                           
  2807                           ;main.c: 169:     GIE = 1;
  2808     10CE  178B               	bsf	11,7	;volatile
  2809                           
  2810                           ;main.c: 172:      OPTION_REG = 0b00000100;
  2811     10CF  3004               	movlw	4
  2812     10D0  0081               	movwf	1	;volatile
  2813                           
  2814                           ;main.c: 174:     TMR0 = 0x83;
  2815     10D1  3083               	movlw	131
  2816     10D2  1283               	bcf	3,5	;RP0=0, select bank0
  2817     10D3  1303               	bcf	3,6	;RP1=0, select bank0
  2818     10D4  0081               	movwf	1	;volatile
  2819                           
  2820                           ;main.c: 176:     INTCONbits.TMR0IF = 0;
  2821     10D5  110B               	bcf	11,2	;volatile
  2822                           
  2823                           ;main.c: 177:     INTCONbits.TMR0IE = 1;
  2824     10D6  168B               	bsf	11,5	;volatile
  2825                           
  2826                           ;main.c: 179:     INTCONbits.GIE = 1;
  2827     10D7  178B               	bsf	11,7	;volatile
  2828     10D8                     l147:
  2829     10D8  0008               	return
  2830     10D9                     __end_of_timer_conf:
  2831                           
  2832                           	psect	text2
  2833     0B7A                     __ptext2:	
  2834 ;; *************** function _splitFloat *****************
  2835 ;; Defined at:
  2836 ;;		line 215 in file "main.c"
  2837 ;; Parameters:    Size  Location     Type
  2838 ;;  val             4   55[BANK1 ] float 
  2839 ;;  d_1000          1   59[BANK1 ] PTR unsigned char 
  2840 ;;		 -> ts1(1), 
  2841 ;;  d_100           1   60[BANK1 ] PTR unsigned char 
  2842 ;;		 -> ts2(1), 
  2843 ;;  d_10            1   61[BANK1 ] PTR unsigned char 
  2844 ;;		 -> ts3(1), 
  2845 ;;  d_1             1   62[BANK1 ] PTR unsigned char 
  2846 ;;		 -> ts4(1), 
  2847 ;; Auto vars:     Size  Location     Type
  2848 ;;  mv_ten          2   12[BANK3 ] int 
  2849 ;;  mv_hun          2   10[BANK3 ] int 
  2850 ;;  v_one           2    8[BANK3 ] int 
  2851 ;;  v_ten           2    6[BANK3 ] int 
  2852 ;;  mv_ten          2    4[BANK3 ] int 
  2853 ;;  mv_hun          2    2[BANK3 ] int 
  2854 ;;  v_one           2    0[BANK3 ] int 
  2855 ;; Return value:  Size  Location     Type
  2856 ;;                  1    wreg      void 
  2857 ;; Registers used:
  2858 ;;		wreg, fsr0l, fsr0h, status,2, status,0, pclath, btemp1, cstack
  2859 ;; Tracked objects:
  2860 ;;		On entry : 0/0
  2861 ;;		On exit  : 0/0
  2862 ;;		Unchanged: 0/0
  2863 ;; Data sizes:     COMMON   BANK0   BANK1   BANK3   BANK2
  2864 ;;      Params:         0       0       8       0       0
  2865 ;;      Locals:         0       0       0      18       0
  2866 ;;      Temps:          0       0       2       0       0
  2867 ;;      Totals:         0       0      10      18       0
  2868 ;;Total ram usage:       28 bytes
  2869 ;; Hardware stack levels used: 1
  2870 ;; Hardware stack levels required when called: 3
  2871 ;; This function calls:
  2872 ;;		___awdiv
  2873 ;;		___awmod
  2874 ;;		___flge
  2875 ;;		___flmul
  2876 ;;		___flsub
  2877 ;;		___fltol
  2878 ;;		___xxtofl
  2879 ;; This function is called by:
  2880 ;;		_main
  2881 ;; This function uses a non-reentrant model
  2882 ;;
  2883                           
  2884     0B7A                     _splitFloat:	
  2885                           ;psect for function _splitFloat
  2886                           
  2887     0B7A                     l2687:	
  2888                           ;incstack = 0
  2889                           ; Regs used in _splitFloat: [wreg-fsr0h+status,2+status,0+pclath+btemp1+cstack]
  2890                           
  2891                           
  2892                           ;main.c: 215: void splitFloat(float val, unsigned char* d_1000, unsigned char* d_100, un
      +                          signed char* d_10, unsigned char* d_1);main.c: 216: {;main.c: 217:   if (val < 10)
  2893     0B7A  1683               	bsf	3,5	;RP0=1, select bank1
  2894     0B7B  1303               	bcf	3,6	;RP1=0, select bank1
  2895     0B7C  085A               	movf	(splitFloat@val+3)^(0+128),w
  2896     0B7D  00CE               	movwf	(___flge@ff1+3)^(0+128)
  2897     0B7E  0859               	movf	(splitFloat@val+2)^(0+128),w
  2898     0B7F  00CD               	movwf	(___flge@ff1+2)^(0+128)
  2899     0B80  0858               	movf	(splitFloat@val+1)^(0+128),w
  2900     0B81  00CC               	movwf	(___flge@ff1+1)^(0+128)
  2901     0B82  0857               	movf	splitFloat@val^(0+128),w
  2902     0B83  00CB               	movwf	___flge@ff1^(0+128)
  2903     0B84  3041               	movlw	65
  2904     0B85  00D2               	movwf	(___flge@ff2+3)^(0+128)
  2905     0B86  3020               	movlw	32
  2906     0B87  00D1               	movwf	(___flge@ff2+2)^(0+128)
  2907     0B88  3000               	movlw	0
  2908     0B89  00D0               	movwf	(___flge@ff2+1)^(0+128)
  2909     0B8A  3000               	movlw	0
  2910     0B8B  00CF               	movwf	___flge@ff2^(0+128)
  2911     0B8C  160A  118A  2348  120A  158A  	fcall	___flge
  2912     0B91  1803               	btfsc	3,0
  2913     0B92  2B94               	goto	u4001
  2914     0B93  2B95               	goto	u4000
  2915     0B94                     u4001:
  2916     0B94  2D91               	goto	l2705
  2917     0B95                     u4000:
  2918     0B95                     l2689:
  2919                           
  2920                           ;main.c: 218:     {;main.c: 219:       int v_one = (int)val % 10;
  2921     0B95  300A               	movlw	10
  2922     0B96  1683               	bsf	3,5	;RP0=1, select bank1
  2923     0B97  1303               	bcf	3,6	;RP1=0, select bank1
  2924     0B98  00A0               	movwf	___awmod@divisor^(0+128)
  2925     0B99  3000               	movlw	0
  2926     0B9A  00A1               	movwf	(___awmod@divisor^(0+128)+1)
  2927     0B9B  085A               	movf	(splitFloat@val+3)^(0+128),w
  2928     0B9C  1283               	bcf	3,5	;RP0=0, select bank0
  2929     0B9D  1303               	bcf	3,6	;RP1=0, select bank0
  2930     0B9E  00B7               	movwf	___fltol@f1+3
  2931     0B9F  1683               	bsf	3,5	;RP0=1, select bank1
  2932     0BA0  1303               	bcf	3,6	;RP1=0, select bank1
  2933     0BA1  0859               	movf	(splitFloat@val+2)^(0+128),w
  2934     0BA2  1283               	bcf	3,5	;RP0=0, select bank0
  2935     0BA3  1303               	bcf	3,6	;RP1=0, select bank0
  2936     0BA4  00B6               	movwf	___fltol@f1+2
  2937     0BA5  1683               	bsf	3,5	;RP0=1, select bank1
  2938     0BA6  1303               	bcf	3,6	;RP1=0, select bank1
  2939     0BA7  0858               	movf	(splitFloat@val+1)^(0+128),w
  2940     0BA8  1283               	bcf	3,5	;RP0=0, select bank0
  2941     0BA9  1303               	bcf	3,6	;RP1=0, select bank0
  2942     0BAA  00B5               	movwf	___fltol@f1+1
  2943     0BAB  1683               	bsf	3,5	;RP0=1, select bank1
  2944     0BAC  1303               	bcf	3,6	;RP1=0, select bank1
  2945     0BAD  0857               	movf	splitFloat@val^(0+128),w
  2946     0BAE  1283               	bcf	3,5	;RP0=0, select bank0
  2947     0BAF  1303               	bcf	3,6	;RP1=0, select bank0
  2948     0BB0  00B4               	movwf	___fltol@f1
  2949     0BB1  160A  118A  22D2  120A  158A  	fcall	___fltol
  2950     0BB6  1283               	bcf	3,5	;RP0=0, select bank0
  2951     0BB7  1303               	bcf	3,6	;RP1=0, select bank0
  2952     0BB8  0835               	movf	?___fltol+1,w
  2953     0BB9  1683               	bsf	3,5	;RP0=1, select bank1
  2954     0BBA  1303               	bcf	3,6	;RP1=0, select bank1
  2955     0BBB  00A3               	movwf	(___awmod@dividend+1)^(0+128)
  2956     0BBC  1283               	bcf	3,5	;RP0=0, select bank0
  2957     0BBD  1303               	bcf	3,6	;RP1=0, select bank0
  2958     0BBE  0834               	movf	?___fltol,w
  2959     0BBF  1683               	bsf	3,5	;RP0=1, select bank1
  2960     0BC0  1303               	bcf	3,6	;RP1=0, select bank1
  2961     0BC1  00A2               	movwf	___awmod@dividend^(0+128)
  2962     0BC2  160A  118A  2264  120A  158A  	fcall	___awmod
  2963     0BC7  1683               	bsf	3,5	;RP0=1, select bank1
  2964     0BC8  1303               	bcf	3,6	;RP1=0, select bank1
  2965     0BC9  0821               	movf	(?___awmod+1)^(0+128),w
  2966     0BCA  1683               	bsf	3,5	;RP0=1, select bank3
  2967     0BCB  1703               	bsf	3,6	;RP1=1, select bank3
  2968     0BCC  00CE               	movwf	(splitFloat@v_one+1)^(0+384)
  2969     0BCD  1683               	bsf	3,5	;RP0=1, select bank1
  2970     0BCE  1303               	bcf	3,6	;RP1=0, select bank1
  2971     0BCF  0820               	movf	?___awmod^(0+128),w
  2972     0BD0  1683               	bsf	3,5	;RP0=1, select bank3
  2973     0BD1  1703               	bsf	3,6	;RP1=1, select bank3
  2974     0BD2  00CD               	movwf	splitFloat@v_one^(0+384)
  2975     0BD3                     l2691:
  2976                           
  2977                           ;main.c: 220:       int mv_hun = (int)((val - (int)val) * 10) % 10;
  2978     0BD3  1683               	bsf	3,5	;RP0=1, select bank1
  2979     0BD4  1303               	bcf	3,6	;RP1=0, select bank1
  2980     0BD5  085A               	movf	(splitFloat@val+3)^(0+128),w
  2981     0BD6  1283               	bcf	3,5	;RP0=0, select bank0
  2982     0BD7  1303               	bcf	3,6	;RP1=0, select bank0
  2983     0BD8  00D3               	movwf	___flsub@b+3
  2984     0BD9  1683               	bsf	3,5	;RP0=1, select bank1
  2985     0BDA  1303               	bcf	3,6	;RP1=0, select bank1
  2986     0BDB  0859               	movf	(splitFloat@val+2)^(0+128),w
  2987     0BDC  1283               	bcf	3,5	;RP0=0, select bank0
  2988     0BDD  1303               	bcf	3,6	;RP1=0, select bank0
  2989     0BDE  00D2               	movwf	___flsub@b+2
  2990     0BDF  1683               	bsf	3,5	;RP0=1, select bank1
  2991     0BE0  1303               	bcf	3,6	;RP1=0, select bank1
  2992     0BE1  0858               	movf	(splitFloat@val+1)^(0+128),w
  2993     0BE2  1283               	bcf	3,5	;RP0=0, select bank0
  2994     0BE3  1303               	bcf	3,6	;RP1=0, select bank0
  2995     0BE4  00D1               	movwf	___flsub@b+1
  2996     0BE5  1683               	bsf	3,5	;RP0=1, select bank1
  2997     0BE6  1303               	bcf	3,6	;RP1=0, select bank1
  2998     0BE7  0857               	movf	splitFloat@val^(0+128),w
  2999     0BE8  1283               	bcf	3,5	;RP0=0, select bank0
  3000     0BE9  1303               	bcf	3,6	;RP1=0, select bank0
  3001     0BEA  00D0               	movwf	___flsub@b
  3002     0BEB  1683               	bsf	3,5	;RP0=1, select bank1
  3003     0BEC  1303               	bcf	3,6	;RP1=0, select bank1
  3004     0BED  085A               	movf	(splitFloat@val+3)^(0+128),w
  3005     0BEE  1283               	bcf	3,5	;RP0=0, select bank0
  3006     0BEF  1303               	bcf	3,6	;RP1=0, select bank0
  3007     0BF0  00B7               	movwf	___fltol@f1+3
  3008     0BF1  1683               	bsf	3,5	;RP0=1, select bank1
  3009     0BF2  1303               	bcf	3,6	;RP1=0, select bank1
  3010     0BF3  0859               	movf	(splitFloat@val+2)^(0+128),w
  3011     0BF4  1283               	bcf	3,5	;RP0=0, select bank0
  3012     0BF5  1303               	bcf	3,6	;RP1=0, select bank0
  3013     0BF6  00B6               	movwf	___fltol@f1+2
  3014     0BF7  1683               	bsf	3,5	;RP0=1, select bank1
  3015     0BF8  1303               	bcf	3,6	;RP1=0, select bank1
  3016     0BF9  0858               	movf	(splitFloat@val+1)^(0+128),w
  3017     0BFA  1283               	bcf	3,5	;RP0=0, select bank0
  3018     0BFB  1303               	bcf	3,6	;RP1=0, select bank0
  3019     0BFC  00B5               	movwf	___fltol@f1+1
  3020     0BFD  1683               	bsf	3,5	;RP0=1, select bank1
  3021     0BFE  1303               	bcf	3,6	;RP1=0, select bank1
  3022     0BFF  0857               	movf	splitFloat@val^(0+128),w
  3023     0C00  1283               	bcf	3,5	;RP0=0, select bank0
  3024     0C01  1303               	bcf	3,6	;RP1=0, select bank0
  3025     0C02  00B4               	movwf	___fltol@f1
  3026     0C03  160A  118A  22D2  120A  158A  	fcall	___fltol
  3027     0C08  1283               	bcf	3,5	;RP0=0, select bank0
  3028     0C09  1303               	bcf	3,6	;RP1=0, select bank0
  3029     0C0A  0834               	movf	?___fltol,w
  3030     0C0B  00BE               	movwf	___xxtofl@val
  3031     0C0C  0835               	movf	?___fltol+1,w
  3032     0C0D  00BF               	movwf	___xxtofl@val+1
  3033     0C0E  3000               	movlw	0
  3034     0C0F  1BBF               	btfsc	___xxtofl@val+1,7
  3035     0C10  30FF               	movlw	255
  3036     0C11  00C0               	movwf	___xxtofl@val+2
  3037     0C12  00C1               	movwf	___xxtofl@val+3
  3038     0C13  3001               	movlw	1
  3039     0C14  160A  118A  23EC  120A  158A  	fcall	___xxtofl
  3040     0C19  1283               	bcf	3,5	;RP0=0, select bank0
  3041     0C1A  1303               	bcf	3,6	;RP1=0, select bank0
  3042     0C1B  0841               	movf	?___xxtofl+3,w
  3043     0C1C  00CF               	movwf	___flsub@a+3
  3044     0C1D  0840               	movf	?___xxtofl+2,w
  3045     0C1E  00CE               	movwf	___flsub@a+2
  3046     0C1F  083F               	movf	?___xxtofl+1,w
  3047     0C20  00CD               	movwf	___flsub@a+1
  3048     0C21  083E               	movf	?___xxtofl,w
  3049     0C22  00CC               	movwf	___flsub@a
  3050     0C23  160A  118A  212F  120A  158A  	fcall	___flsub
  3051     0C28  1283               	bcf	3,5	;RP0=0, select bank0
  3052     0C29  1303               	bcf	3,6	;RP1=0, select bank0
  3053     0C2A  084F               	movf	?___flsub+3,w
  3054     0C2B  00DB               	movwf	___flmul@a+3
  3055     0C2C  084E               	movf	?___flsub+2,w
  3056     0C2D  00DA               	movwf	___flmul@a+2
  3057     0C2E  084D               	movf	?___flsub+1,w
  3058     0C2F  00D9               	movwf	___flmul@a+1
  3059     0C30  084C               	movf	?___flsub,w
  3060     0C31  00D8               	movwf	___flmul@a
  3061     0C32  3041               	movlw	65
  3062     0C33  00D7               	movwf	___flmul@b+3
  3063     0C34  3020               	movlw	32
  3064     0C35  00D6               	movwf	___flmul@b+2
  3065     0C36  3000               	movlw	0
  3066     0C37  00D5               	movwf	___flmul@b+1
  3067     0C38  3000               	movlw	0
  3068     0C39  00D4               	movwf	___flmul@b
  3069     0C3A  120A  158A  2038  120A  158A  	fcall	___flmul
  3070     0C3F  1283               	bcf	3,5	;RP0=0, select bank0
  3071     0C40  1303               	bcf	3,6	;RP1=0, select bank0
  3072     0C41  0857               	movf	?___flmul+3,w
  3073     0C42  1683               	bsf	3,5	;RP0=1, select bank3
  3074     0C43  1703               	bsf	3,6	;RP1=1, select bank3
  3075     0C44  00DE               	movwf	(_splitFloat$959+3)^(0+384)
  3076     0C45  1283               	bcf	3,5	;RP0=0, select bank0
  3077     0C46  1303               	bcf	3,6	;RP1=0, select bank0
  3078     0C47  0856               	movf	?___flmul+2,w
  3079     0C48  1683               	bsf	3,5	;RP0=1, select bank3
  3080     0C49  1703               	bsf	3,6	;RP1=1, select bank3
  3081     0C4A  00DD               	movwf	(_splitFloat$959+2)^(0+384)
  3082     0C4B  1283               	bcf	3,5	;RP0=0, select bank0
  3083     0C4C  1303               	bcf	3,6	;RP1=0, select bank0
  3084     0C4D  0855               	movf	?___flmul+1,w
  3085     0C4E  1683               	bsf	3,5	;RP0=1, select bank3
  3086     0C4F  1703               	bsf	3,6	;RP1=1, select bank3
  3087     0C50  00DC               	movwf	(_splitFloat$959+1)^(0+384)
  3088     0C51  1283               	bcf	3,5	;RP0=0, select bank0
  3089     0C52  1303               	bcf	3,6	;RP1=0, select bank0
  3090     0C53  0854               	movf	?___flmul,w
  3091     0C54  1683               	bsf	3,5	;RP0=1, select bank3
  3092     0C55  1703               	bsf	3,6	;RP1=1, select bank3
  3093     0C56  00DB               	movwf	_splitFloat$959^(0+384)
  3094     0C57                     l2693:
  3095                           
  3096                           ;main.c: 220:       int mv_hun = (int)((val - (int)val) * 10) % 10;
  3097     0C57  300A               	movlw	10
  3098     0C58  1683               	bsf	3,5	;RP0=1, select bank1
  3099     0C59  1303               	bcf	3,6	;RP1=0, select bank1
  3100     0C5A  00A0               	movwf	___awmod@divisor^(0+128)
  3101     0C5B  3000               	movlw	0
  3102     0C5C  00A1               	movwf	(___awmod@divisor^(0+128)+1)
  3103     0C5D  1683               	bsf	3,5	;RP0=1, select bank3
  3104     0C5E  1703               	bsf	3,6	;RP1=1, select bank3
  3105     0C5F  085E               	movf	(_splitFloat$959+3)^(0+384),w
  3106     0C60  1283               	bcf	3,5	;RP0=0, select bank0
  3107     0C61  1303               	bcf	3,6	;RP1=0, select bank0
  3108     0C62  00B7               	movwf	___fltol@f1+3
  3109     0C63  1683               	bsf	3,5	;RP0=1, select bank3
  3110     0C64  1703               	bsf	3,6	;RP1=1, select bank3
  3111     0C65  085D               	movf	(_splitFloat$959+2)^(0+384),w
  3112     0C66  1283               	bcf	3,5	;RP0=0, select bank0
  3113     0C67  1303               	bcf	3,6	;RP1=0, select bank0
  3114     0C68  00B6               	movwf	___fltol@f1+2
  3115     0C69  1683               	bsf	3,5	;RP0=1, select bank3
  3116     0C6A  1703               	bsf	3,6	;RP1=1, select bank3
  3117     0C6B  085C               	movf	(_splitFloat$959+1)^(0+384),w
  3118     0C6C  1283               	bcf	3,5	;RP0=0, select bank0
  3119     0C6D  1303               	bcf	3,6	;RP1=0, select bank0
  3120     0C6E  00B5               	movwf	___fltol@f1+1
  3121     0C6F  1683               	bsf	3,5	;RP0=1, select bank3
  3122     0C70  1703               	bsf	3,6	;RP1=1, select bank3
  3123     0C71  085B               	movf	_splitFloat$959^(0+384),w
  3124     0C72  1283               	bcf	3,5	;RP0=0, select bank0
  3125     0C73  1303               	bcf	3,6	;RP1=0, select bank0
  3126     0C74  00B4               	movwf	___fltol@f1
  3127     0C75  160A  118A  22D2  120A  158A  	fcall	___fltol
  3128     0C7A  1283               	bcf	3,5	;RP0=0, select bank0
  3129     0C7B  1303               	bcf	3,6	;RP1=0, select bank0
  3130     0C7C  0835               	movf	?___fltol+1,w
  3131     0C7D  1683               	bsf	3,5	;RP0=1, select bank1
  3132     0C7E  1303               	bcf	3,6	;RP1=0, select bank1
  3133     0C7F  00A3               	movwf	(___awmod@dividend+1)^(0+128)
  3134     0C80  1283               	bcf	3,5	;RP0=0, select bank0
  3135     0C81  1303               	bcf	3,6	;RP1=0, select bank0
  3136     0C82  0834               	movf	?___fltol,w
  3137     0C83  1683               	bsf	3,5	;RP0=1, select bank1
  3138     0C84  1303               	bcf	3,6	;RP1=0, select bank1
  3139     0C85  00A2               	movwf	___awmod@dividend^(0+128)
  3140     0C86  160A  118A  2264  120A  158A  	fcall	___awmod
  3141     0C8B  1683               	bsf	3,5	;RP0=1, select bank1
  3142     0C8C  1303               	bcf	3,6	;RP1=0, select bank1
  3143     0C8D  0821               	movf	(?___awmod+1)^(0+128),w
  3144     0C8E  1683               	bsf	3,5	;RP0=1, select bank3
  3145     0C8F  1703               	bsf	3,6	;RP1=1, select bank3
  3146     0C90  00D0               	movwf	(splitFloat@mv_hun+1)^(0+384)
  3147     0C91  1683               	bsf	3,5	;RP0=1, select bank1
  3148     0C92  1303               	bcf	3,6	;RP1=0, select bank1
  3149     0C93  0820               	movf	?___awmod^(0+128),w
  3150     0C94  1683               	bsf	3,5	;RP0=1, select bank3
  3151     0C95  1703               	bsf	3,6	;RP1=1, select bank3
  3152     0C96  00CF               	movwf	splitFloat@mv_hun^(0+384)
  3153                           
  3154                           ;main.c: 221:       int mv_ten = (int)((val - (int)val) * 100) % 10;
  3155     0C97  1683               	bsf	3,5	;RP0=1, select bank1
  3156     0C98  1303               	bcf	3,6	;RP1=0, select bank1
  3157     0C99  085A               	movf	(splitFloat@val+3)^(0+128),w
  3158     0C9A  1283               	bcf	3,5	;RP0=0, select bank0
  3159     0C9B  1303               	bcf	3,6	;RP1=0, select bank0
  3160     0C9C  00D3               	movwf	___flsub@b+3
  3161     0C9D  1683               	bsf	3,5	;RP0=1, select bank1
  3162     0C9E  1303               	bcf	3,6	;RP1=0, select bank1
  3163     0C9F  0859               	movf	(splitFloat@val+2)^(0+128),w
  3164     0CA0  1283               	bcf	3,5	;RP0=0, select bank0
  3165     0CA1  1303               	bcf	3,6	;RP1=0, select bank0
  3166     0CA2  00D2               	movwf	___flsub@b+2
  3167     0CA3  1683               	bsf	3,5	;RP0=1, select bank1
  3168     0CA4  1303               	bcf	3,6	;RP1=0, select bank1
  3169     0CA5  0858               	movf	(splitFloat@val+1)^(0+128),w
  3170     0CA6  1283               	bcf	3,5	;RP0=0, select bank0
  3171     0CA7  1303               	bcf	3,6	;RP1=0, select bank0
  3172     0CA8  00D1               	movwf	___flsub@b+1
  3173     0CA9  1683               	bsf	3,5	;RP0=1, select bank1
  3174     0CAA  1303               	bcf	3,6	;RP1=0, select bank1
  3175     0CAB  0857               	movf	splitFloat@val^(0+128),w
  3176     0CAC  1283               	bcf	3,5	;RP0=0, select bank0
  3177     0CAD  1303               	bcf	3,6	;RP1=0, select bank0
  3178     0CAE  00D0               	movwf	___flsub@b
  3179     0CAF  1683               	bsf	3,5	;RP0=1, select bank1
  3180     0CB0  1303               	bcf	3,6	;RP1=0, select bank1
  3181     0CB1  085A               	movf	(splitFloat@val+3)^(0+128),w
  3182     0CB2  1283               	bcf	3,5	;RP0=0, select bank0
  3183     0CB3  1303               	bcf	3,6	;RP1=0, select bank0
  3184     0CB4  00B7               	movwf	___fltol@f1+3
  3185     0CB5  1683               	bsf	3,5	;RP0=1, select bank1
  3186     0CB6  1303               	bcf	3,6	;RP1=0, select bank1
  3187     0CB7  0859               	movf	(splitFloat@val+2)^(0+128),w
  3188     0CB8  1283               	bcf	3,5	;RP0=0, select bank0
  3189     0CB9  1303               	bcf	3,6	;RP1=0, select bank0
  3190     0CBA  00B6               	movwf	___fltol@f1+2
  3191     0CBB  1683               	bsf	3,5	;RP0=1, select bank1
  3192     0CBC  1303               	bcf	3,6	;RP1=0, select bank1
  3193     0CBD  0858               	movf	(splitFloat@val+1)^(0+128),w
  3194     0CBE  1283               	bcf	3,5	;RP0=0, select bank0
  3195     0CBF  1303               	bcf	3,6	;RP1=0, select bank0
  3196     0CC0  00B5               	movwf	___fltol@f1+1
  3197     0CC1  1683               	bsf	3,5	;RP0=1, select bank1
  3198     0CC2  1303               	bcf	3,6	;RP1=0, select bank1
  3199     0CC3  0857               	movf	splitFloat@val^(0+128),w
  3200     0CC4  1283               	bcf	3,5	;RP0=0, select bank0
  3201     0CC5  1303               	bcf	3,6	;RP1=0, select bank0
  3202     0CC6  00B4               	movwf	___fltol@f1
  3203     0CC7  160A  118A  22D2  120A  158A  	fcall	___fltol
  3204     0CCC  1283               	bcf	3,5	;RP0=0, select bank0
  3205     0CCD  1303               	bcf	3,6	;RP1=0, select bank0
  3206     0CCE  0834               	movf	?___fltol,w
  3207     0CCF  00BE               	movwf	___xxtofl@val
  3208     0CD0  0835               	movf	?___fltol+1,w
  3209     0CD1  00BF               	movwf	___xxtofl@val+1
  3210     0CD2  3000               	movlw	0
  3211     0CD3  1BBF               	btfsc	___xxtofl@val+1,7
  3212     0CD4  30FF               	movlw	255
  3213     0CD5  00C0               	movwf	___xxtofl@val+2
  3214     0CD6  00C1               	movwf	___xxtofl@val+3
  3215     0CD7  3001               	movlw	1
  3216     0CD8  160A  118A  23EC  120A  158A  	fcall	___xxtofl
  3217     0CDD  1283               	bcf	3,5	;RP0=0, select bank0
  3218     0CDE  1303               	bcf	3,6	;RP1=0, select bank0
  3219     0CDF  0841               	movf	?___xxtofl+3,w
  3220     0CE0  00CF               	movwf	___flsub@a+3
  3221     0CE1  0840               	movf	?___xxtofl+2,w
  3222     0CE2  00CE               	movwf	___flsub@a+2
  3223     0CE3  083F               	movf	?___xxtofl+1,w
  3224     0CE4  00CD               	movwf	___flsub@a+1
  3225     0CE5  083E               	movf	?___xxtofl,w
  3226     0CE6  00CC               	movwf	___flsub@a
  3227     0CE7  160A  118A  212F  120A  158A  	fcall	___flsub
  3228     0CEC  1283               	bcf	3,5	;RP0=0, select bank0
  3229     0CED  1303               	bcf	3,6	;RP1=0, select bank0
  3230     0CEE  084F               	movf	?___flsub+3,w
  3231     0CEF  00DB               	movwf	___flmul@a+3
  3232     0CF0  084E               	movf	?___flsub+2,w
  3233     0CF1  00DA               	movwf	___flmul@a+2
  3234     0CF2  084D               	movf	?___flsub+1,w
  3235     0CF3  00D9               	movwf	___flmul@a+1
  3236     0CF4  084C               	movf	?___flsub,w
  3237     0CF5  00D8               	movwf	___flmul@a
  3238     0CF6  3042               	movlw	66
  3239     0CF7  00D7               	movwf	___flmul@b+3
  3240     0CF8  30C8               	movlw	200
  3241     0CF9  00D6               	movwf	___flmul@b+2
  3242     0CFA  3000               	movlw	0
  3243     0CFB  00D5               	movwf	___flmul@b+1
  3244     0CFC  3000               	movlw	0
  3245     0CFD  00D4               	movwf	___flmul@b
  3246     0CFE  120A  158A  2038  120A  158A  	fcall	___flmul
  3247     0D03  1283               	bcf	3,5	;RP0=0, select bank0
  3248     0D04  1303               	bcf	3,6	;RP1=0, select bank0
  3249     0D05  0857               	movf	?___flmul+3,w
  3250     0D06  1683               	bsf	3,5	;RP0=1, select bank3
  3251     0D07  1703               	bsf	3,6	;RP1=1, select bank3
  3252     0D08  00DE               	movwf	(_splitFloat$959+3)^(0+384)
  3253     0D09  1283               	bcf	3,5	;RP0=0, select bank0
  3254     0D0A  1303               	bcf	3,6	;RP1=0, select bank0
  3255     0D0B  0856               	movf	?___flmul+2,w
  3256     0D0C  1683               	bsf	3,5	;RP0=1, select bank3
  3257     0D0D  1703               	bsf	3,6	;RP1=1, select bank3
  3258     0D0E  00DD               	movwf	(_splitFloat$959+2)^(0+384)
  3259     0D0F  1283               	bcf	3,5	;RP0=0, select bank0
  3260     0D10  1303               	bcf	3,6	;RP1=0, select bank0
  3261     0D11  0855               	movf	?___flmul+1,w
  3262     0D12  1683               	bsf	3,5	;RP0=1, select bank3
  3263     0D13  1703               	bsf	3,6	;RP1=1, select bank3
  3264     0D14  00DC               	movwf	(_splitFloat$959+1)^(0+384)
  3265     0D15  1283               	bcf	3,5	;RP0=0, select bank0
  3266     0D16  1303               	bcf	3,6	;RP1=0, select bank0
  3267     0D17  0854               	movf	?___flmul,w
  3268     0D18  1683               	bsf	3,5	;RP0=1, select bank3
  3269     0D19  1703               	bsf	3,6	;RP1=1, select bank3
  3270     0D1A  00DB               	movwf	_splitFloat$959^(0+384)
  3271     0D1B                     l2695:
  3272                           
  3273                           ;main.c: 221:       int mv_ten = (int)((val - (int)val) * 100) % 10;
  3274     0D1B  300A               	movlw	10
  3275     0D1C  1683               	bsf	3,5	;RP0=1, select bank1
  3276     0D1D  1303               	bcf	3,6	;RP1=0, select bank1
  3277     0D1E  00A0               	movwf	___awmod@divisor^(0+128)
  3278     0D1F  3000               	movlw	0
  3279     0D20  00A1               	movwf	(___awmod@divisor^(0+128)+1)
  3280     0D21  1683               	bsf	3,5	;RP0=1, select bank3
  3281     0D22  1703               	bsf	3,6	;RP1=1, select bank3
  3282     0D23  085E               	movf	(_splitFloat$959+3)^(0+384),w
  3283     0D24  1283               	bcf	3,5	;RP0=0, select bank0
  3284     0D25  1303               	bcf	3,6	;RP1=0, select bank0
  3285     0D26  00B7               	movwf	___fltol@f1+3
  3286     0D27  1683               	bsf	3,5	;RP0=1, select bank3
  3287     0D28  1703               	bsf	3,6	;RP1=1, select bank3
  3288     0D29  085D               	movf	(_splitFloat$959+2)^(0+384),w
  3289     0D2A  1283               	bcf	3,5	;RP0=0, select bank0
  3290     0D2B  1303               	bcf	3,6	;RP1=0, select bank0
  3291     0D2C  00B6               	movwf	___fltol@f1+2
  3292     0D2D  1683               	bsf	3,5	;RP0=1, select bank3
  3293     0D2E  1703               	bsf	3,6	;RP1=1, select bank3
  3294     0D2F  085C               	movf	(_splitFloat$959+1)^(0+384),w
  3295     0D30  1283               	bcf	3,5	;RP0=0, select bank0
  3296     0D31  1303               	bcf	3,6	;RP1=0, select bank0
  3297     0D32  00B5               	movwf	___fltol@f1+1
  3298     0D33  1683               	bsf	3,5	;RP0=1, select bank3
  3299     0D34  1703               	bsf	3,6	;RP1=1, select bank3
  3300     0D35  085B               	movf	_splitFloat$959^(0+384),w
  3301     0D36  1283               	bcf	3,5	;RP0=0, select bank0
  3302     0D37  1303               	bcf	3,6	;RP1=0, select bank0
  3303     0D38  00B4               	movwf	___fltol@f1
  3304     0D39  160A  118A  22D2  120A  158A  	fcall	___fltol
  3305     0D3E  1283               	bcf	3,5	;RP0=0, select bank0
  3306     0D3F  1303               	bcf	3,6	;RP1=0, select bank0
  3307     0D40  0835               	movf	?___fltol+1,w
  3308     0D41  1683               	bsf	3,5	;RP0=1, select bank1
  3309     0D42  1303               	bcf	3,6	;RP1=0, select bank1
  3310     0D43  00A3               	movwf	(___awmod@dividend+1)^(0+128)
  3311     0D44  1283               	bcf	3,5	;RP0=0, select bank0
  3312     0D45  1303               	bcf	3,6	;RP1=0, select bank0
  3313     0D46  0834               	movf	?___fltol,w
  3314     0D47  1683               	bsf	3,5	;RP0=1, select bank1
  3315     0D48  1303               	bcf	3,6	;RP1=0, select bank1
  3316     0D49  00A2               	movwf	___awmod@dividend^(0+128)
  3317     0D4A  160A  118A  2264  120A  158A  	fcall	___awmod
  3318     0D4F  1683               	bsf	3,5	;RP0=1, select bank1
  3319     0D50  1303               	bcf	3,6	;RP1=0, select bank1
  3320     0D51  0821               	movf	(?___awmod+1)^(0+128),w
  3321     0D52  1683               	bsf	3,5	;RP0=1, select bank3
  3322     0D53  1703               	bsf	3,6	;RP1=1, select bank3
  3323     0D54  00D2               	movwf	(splitFloat@mv_ten+1)^(0+384)
  3324     0D55  1683               	bsf	3,5	;RP0=1, select bank1
  3325     0D56  1303               	bcf	3,6	;RP1=0, select bank1
  3326     0D57  0820               	movf	?___awmod^(0+128),w
  3327     0D58  1683               	bsf	3,5	;RP0=1, select bank3
  3328     0D59  1703               	bsf	3,6	;RP1=1, select bank3
  3329     0D5A  00D1               	movwf	splitFloat@mv_ten^(0+384)
  3330     0D5B                     l2697:
  3331                           
  3332                           ;main.c: 222:       *d_1000 = SS1_BCD[0];
  3333     0D5B  1683               	bsf	3,5	;RP0=1, select bank1
  3334     0D5C  1303               	bcf	3,6	;RP1=0, select bank1
  3335     0D5D  085B               	movf	splitFloat@d_1000^(0+128),w
  3336     0D5E  0084               	movwf	4
  3337     0D5F  1683               	bsf	3,5	;RP0=1, select bank3
  3338     0D60  1703               	bsf	3,6	;RP1=1, select bank3
  3339     0D61  0831               	movf	_SS1_BCD^(0+384),w
  3340     0D62  1783               	bsf	3,7	;select IRP bank2
  3341     0D63  0080               	movwf	0
  3342     0D64                     l2699:
  3343                           
  3344                           ;main.c: 223:       *d_100 = SS2_BCD[v_one] | 0x08;
  3345     0D64  084D               	movf	splitFloat@v_one^(0+384),w
  3346     0D65  1683               	bsf	3,5	;RP0=1, select bank1
  3347     0D66  1303               	bcf	3,6	;RP1=0, select bank1
  3348     0D67  00DF               	movwf	??_splitFloat^(0+128)
  3349     0D68  075F               	addwf	??_splitFloat^(0+128),w
  3350     0D69  3E28               	addlw	(low (_SS2_BCD| (0+256)))& (0+255)
  3351     0D6A  0084               	movwf	4
  3352     0D6B  0800               	movf	0,w
  3353     0D6C  3808               	iorlw	8
  3354     0D6D  00E0               	movwf	(??_splitFloat+1)^(0+128)
  3355     0D6E  085C               	movf	splitFloat@d_100^(0+128),w
  3356     0D6F  0084               	movwf	4
  3357     0D70  0860               	movf	(??_splitFloat+1)^(0+128),w
  3358     0D71  0080               	movwf	0
  3359     0D72                     l2701:
  3360                           
  3361                           ;main.c: 224:       *d_10 = SS1_BCD[mv_hun];
  3362     0D72  1683               	bsf	3,5	;RP0=1, select bank3
  3363     0D73  1703               	bsf	3,6	;RP1=1, select bank3
  3364     0D74  084F               	movf	splitFloat@mv_hun^(0+384),w
  3365     0D75  1683               	bsf	3,5	;RP0=1, select bank1
  3366     0D76  1303               	bcf	3,6	;RP1=0, select bank1
  3367     0D77  00DF               	movwf	??_splitFloat^(0+128)
  3368     0D78  075F               	addwf	??_splitFloat^(0+128),w
  3369     0D79  3EB1               	addlw	(low (_SS1_BCD| (0+256)))& (0+255)
  3370     0D7A  0084               	movwf	4
  3371     0D7B  0800               	movf	0,w
  3372     0D7C  00E0               	movwf	(??_splitFloat+1)^(0+128)
  3373     0D7D  085D               	movf	splitFloat@d_10^(0+128),w
  3374     0D7E  0084               	movwf	4
  3375     0D7F  0860               	movf	(??_splitFloat+1)^(0+128),w
  3376     0D80  0080               	movwf	0
  3377     0D81                     l2703:
  3378                           
  3379                           ;main.c: 225:       *d_1= SS2_BCD[mv_ten];
  3380     0D81  1683               	bsf	3,5	;RP0=1, select bank3
  3381     0D82  1703               	bsf	3,6	;RP1=1, select bank3
  3382     0D83  0851               	movf	splitFloat@mv_ten^(0+384),w
  3383     0D84  1683               	bsf	3,5	;RP0=1, select bank1
  3384     0D85  1303               	bcf	3,6	;RP1=0, select bank1
  3385     0D86  00DF               	movwf	??_splitFloat^(0+128)
  3386     0D87  075F               	addwf	??_splitFloat^(0+128),w
  3387     0D88  3E28               	addlw	(low (_SS2_BCD| (0+256)))& (0+255)
  3388     0D89  0084               	movwf	4
  3389     0D8A  0800               	movf	0,w
  3390     0D8B  00E0               	movwf	(??_splitFloat+1)^(0+128)
  3391     0D8C  085E               	movf	splitFloat@d_1^(0+128),w
  3392     0D8D  0084               	movwf	4
  3393     0D8E  0860               	movf	(??_splitFloat+1)^(0+128),w
  3394     0D8F  0080               	movwf	0
  3395                           
  3396                           ;main.c: 226:     }
  3397     0D90  2FFF               	goto	l165
  3398     0D91                     l2705:
  3399     0D91  1683               	bsf	3,5	;RP0=1, select bank1
  3400     0D92  1303               	bcf	3,6	;RP1=0, select bank1
  3401     0D93  085A               	movf	(splitFloat@val+3)^(0+128),w
  3402     0D94  00CE               	movwf	(___flge@ff1+3)^(0+128)
  3403     0D95  0859               	movf	(splitFloat@val+2)^(0+128),w
  3404     0D96  00CD               	movwf	(___flge@ff1+2)^(0+128)
  3405     0D97  0858               	movf	(splitFloat@val+1)^(0+128),w
  3406     0D98  00CC               	movwf	(___flge@ff1+1)^(0+128)
  3407     0D99  0857               	movf	splitFloat@val^(0+128),w
  3408     0D9A  00CB               	movwf	___flge@ff1^(0+128)
  3409     0D9B  3041               	movlw	65
  3410     0D9C  00D2               	movwf	(___flge@ff2+3)^(0+128)
  3411     0D9D  3020               	movlw	32
  3412     0D9E  00D1               	movwf	(___flge@ff2+2)^(0+128)
  3413     0D9F  3000               	movlw	0
  3414     0DA0  00D0               	movwf	(___flge@ff2+1)^(0+128)
  3415     0DA1  3000               	movlw	0
  3416     0DA2  00CF               	movwf	___flge@ff2^(0+128)
  3417     0DA3  160A  118A  2348  120A  158A  	fcall	___flge
  3418     0DA8  1C03               	btfss	3,0
  3419     0DA9  2DAB               	goto	u4011
  3420     0DAA  2DAC               	goto	u4010
  3421     0DAB                     u4011:
  3422     0DAB  2FFF               	goto	l165
  3423     0DAC                     u4010:
  3424     0DAC                     l2707:
  3425                           
  3426                           ;main.c: 228:   {;main.c: 229:     int v_ten = ((int)val / 10) % 10;
  3427     0DAC  300A               	movlw	10
  3428     0DAD  1683               	bsf	3,5	;RP0=1, select bank1
  3429     0DAE  1303               	bcf	3,6	;RP1=0, select bank1
  3430     0DAF  00A0               	movwf	___awmod@divisor^(0+128)
  3431     0DB0  3000               	movlw	0
  3432     0DB1  00A1               	movwf	(___awmod@divisor^(0+128)+1)
  3433     0DB2  300A               	movlw	10
  3434     0DB3  1283               	bcf	3,5	;RP0=0, select bank0
  3435     0DB4  1303               	bcf	3,6	;RP1=0, select bank0
  3436     0DB5  00BE               	movwf	___awdiv@divisor
  3437     0DB6  3000               	movlw	0
  3438     0DB7  00BF               	movwf	___awdiv@divisor+1
  3439     0DB8  1683               	bsf	3,5	;RP0=1, select bank1
  3440     0DB9  1303               	bcf	3,6	;RP1=0, select bank1
  3441     0DBA  085A               	movf	(splitFloat@val+3)^(0+128),w
  3442     0DBB  1283               	bcf	3,5	;RP0=0, select bank0
  3443     0DBC  1303               	bcf	3,6	;RP1=0, select bank0
  3444     0DBD  00B7               	movwf	___fltol@f1+3
  3445     0DBE  1683               	bsf	3,5	;RP0=1, select bank1
  3446     0DBF  1303               	bcf	3,6	;RP1=0, select bank1
  3447     0DC0  0859               	movf	(splitFloat@val+2)^(0+128),w
  3448     0DC1  1283               	bcf	3,5	;RP0=0, select bank0
  3449     0DC2  1303               	bcf	3,6	;RP1=0, select bank0
  3450     0DC3  00B6               	movwf	___fltol@f1+2
  3451     0DC4  1683               	bsf	3,5	;RP0=1, select bank1
  3452     0DC5  1303               	bcf	3,6	;RP1=0, select bank1
  3453     0DC6  0858               	movf	(splitFloat@val+1)^(0+128),w
  3454     0DC7  1283               	bcf	3,5	;RP0=0, select bank0
  3455     0DC8  1303               	bcf	3,6	;RP1=0, select bank0
  3456     0DC9  00B5               	movwf	___fltol@f1+1
  3457     0DCA  1683               	bsf	3,5	;RP0=1, select bank1
  3458     0DCB  1303               	bcf	3,6	;RP1=0, select bank1
  3459     0DCC  0857               	movf	splitFloat@val^(0+128),w
  3460     0DCD  1283               	bcf	3,5	;RP0=0, select bank0
  3461     0DCE  1303               	bcf	3,6	;RP1=0, select bank0
  3462     0DCF  00B4               	movwf	___fltol@f1
  3463     0DD0  160A  118A  22D2  120A  158A  	fcall	___fltol
  3464     0DD5  1283               	bcf	3,5	;RP0=0, select bank0
  3465     0DD6  1303               	bcf	3,6	;RP1=0, select bank0
  3466     0DD7  0835               	movf	?___fltol+1,w
  3467     0DD8  00C1               	movwf	___awdiv@dividend+1
  3468     0DD9  0834               	movf	?___fltol,w
  3469     0DDA  00C0               	movwf	___awdiv@dividend
  3470     0DDB  160A  118A  21FF  120A  158A  	fcall	___awdiv
  3471     0DE0  1283               	bcf	3,5	;RP0=0, select bank0
  3472     0DE1  1303               	bcf	3,6	;RP1=0, select bank0
  3473     0DE2  083F               	movf	?___awdiv+1,w
  3474     0DE3  1683               	bsf	3,5	;RP0=1, select bank1
  3475     0DE4  1303               	bcf	3,6	;RP1=0, select bank1
  3476     0DE5  00A3               	movwf	(___awmod@dividend+1)^(0+128)
  3477     0DE6  1283               	bcf	3,5	;RP0=0, select bank0
  3478     0DE7  1303               	bcf	3,6	;RP1=0, select bank0
  3479     0DE8  083E               	movf	?___awdiv,w
  3480     0DE9  1683               	bsf	3,5	;RP0=1, select bank1
  3481     0DEA  1303               	bcf	3,6	;RP1=0, select bank1
  3482     0DEB  00A2               	movwf	___awmod@dividend^(0+128)
  3483     0DEC  160A  118A  2264  120A  158A  	fcall	___awmod
  3484     0DF1  1683               	bsf	3,5	;RP0=1, select bank1
  3485     0DF2  1303               	bcf	3,6	;RP1=0, select bank1
  3486     0DF3  0821               	movf	(?___awmod+1)^(0+128),w
  3487     0DF4  1683               	bsf	3,5	;RP0=1, select bank3
  3488     0DF5  1703               	bsf	3,6	;RP1=1, select bank3
  3489     0DF6  00D4               	movwf	(splitFloat@v_ten+1)^(0+384)
  3490     0DF7  1683               	bsf	3,5	;RP0=1, select bank1
  3491     0DF8  1303               	bcf	3,6	;RP1=0, select bank1
  3492     0DF9  0820               	movf	?___awmod^(0+128),w
  3493     0DFA  1683               	bsf	3,5	;RP0=1, select bank3
  3494     0DFB  1703               	bsf	3,6	;RP1=1, select bank3
  3495     0DFC  00D3               	movwf	splitFloat@v_ten^(0+384)
  3496                           
  3497                           ;main.c: 230:     int v_one = (int)val % 10;
  3498     0DFD  300A               	movlw	10
  3499     0DFE  1683               	bsf	3,5	;RP0=1, select bank1
  3500     0DFF  1303               	bcf	3,6	;RP1=0, select bank1
  3501     0E00  00A0               	movwf	___awmod@divisor^(0+128)
  3502     0E01  3000               	movlw	0
  3503     0E02  00A1               	movwf	(___awmod@divisor^(0+128)+1)
  3504     0E03  085A               	movf	(splitFloat@val+3)^(0+128),w
  3505     0E04  1283               	bcf	3,5	;RP0=0, select bank0
  3506     0E05  1303               	bcf	3,6	;RP1=0, select bank0
  3507     0E06  00B7               	movwf	___fltol@f1+3
  3508     0E07  1683               	bsf	3,5	;RP0=1, select bank1
  3509     0E08  1303               	bcf	3,6	;RP1=0, select bank1
  3510     0E09  0859               	movf	(splitFloat@val+2)^(0+128),w
  3511     0E0A  1283               	bcf	3,5	;RP0=0, select bank0
  3512     0E0B  1303               	bcf	3,6	;RP1=0, select bank0
  3513     0E0C  00B6               	movwf	___fltol@f1+2
  3514     0E0D  1683               	bsf	3,5	;RP0=1, select bank1
  3515     0E0E  1303               	bcf	3,6	;RP1=0, select bank1
  3516     0E0F  0858               	movf	(splitFloat@val+1)^(0+128),w
  3517     0E10  1283               	bcf	3,5	;RP0=0, select bank0
  3518     0E11  1303               	bcf	3,6	;RP1=0, select bank0
  3519     0E12  00B5               	movwf	___fltol@f1+1
  3520     0E13  1683               	bsf	3,5	;RP0=1, select bank1
  3521     0E14  1303               	bcf	3,6	;RP1=0, select bank1
  3522     0E15  0857               	movf	splitFloat@val^(0+128),w
  3523     0E16  1283               	bcf	3,5	;RP0=0, select bank0
  3524     0E17  1303               	bcf	3,6	;RP1=0, select bank0
  3525     0E18  00B4               	movwf	___fltol@f1
  3526     0E19  160A  118A  22D2  120A  158A  	fcall	___fltol
  3527     0E1E  1283               	bcf	3,5	;RP0=0, select bank0
  3528     0E1F  1303               	bcf	3,6	;RP1=0, select bank0
  3529     0E20  0835               	movf	?___fltol+1,w
  3530     0E21  1683               	bsf	3,5	;RP0=1, select bank1
  3531     0E22  1303               	bcf	3,6	;RP1=0, select bank1
  3532     0E23  00A3               	movwf	(___awmod@dividend+1)^(0+128)
  3533     0E24  1283               	bcf	3,5	;RP0=0, select bank0
  3534     0E25  1303               	bcf	3,6	;RP1=0, select bank0
  3535     0E26  0834               	movf	?___fltol,w
  3536     0E27  1683               	bsf	3,5	;RP0=1, select bank1
  3537     0E28  1303               	bcf	3,6	;RP1=0, select bank1
  3538     0E29  00A2               	movwf	___awmod@dividend^(0+128)
  3539     0E2A  160A  118A  2264  120A  158A  	fcall	___awmod
  3540     0E2F  1683               	bsf	3,5	;RP0=1, select bank1
  3541     0E30  1303               	bcf	3,6	;RP1=0, select bank1
  3542     0E31  0821               	movf	(?___awmod+1)^(0+128),w
  3543     0E32  1683               	bsf	3,5	;RP0=1, select bank3
  3544     0E33  1703               	bsf	3,6	;RP1=1, select bank3
  3545     0E34  00D6               	movwf	(splitFloat@v_one_295+1)^(0+384)
  3546     0E35  1683               	bsf	3,5	;RP0=1, select bank1
  3547     0E36  1303               	bcf	3,6	;RP1=0, select bank1
  3548     0E37  0820               	movf	?___awmod^(0+128),w
  3549     0E38  1683               	bsf	3,5	;RP0=1, select bank3
  3550     0E39  1703               	bsf	3,6	;RP1=1, select bank3
  3551     0E3A  00D5               	movwf	splitFloat@v_one_295^(0+384)
  3552     0E3B                     l2709:
  3553                           
  3554                           ;main.c: 232:     int mv_hun = (int)((val - (int)val) * 10) % 10;
  3555     0E3B  1683               	bsf	3,5	;RP0=1, select bank1
  3556     0E3C  1303               	bcf	3,6	;RP1=0, select bank1
  3557     0E3D  085A               	movf	(splitFloat@val+3)^(0+128),w
  3558     0E3E  1283               	bcf	3,5	;RP0=0, select bank0
  3559     0E3F  1303               	bcf	3,6	;RP1=0, select bank0
  3560     0E40  00D3               	movwf	___flsub@b+3
  3561     0E41  1683               	bsf	3,5	;RP0=1, select bank1
  3562     0E42  1303               	bcf	3,6	;RP1=0, select bank1
  3563     0E43  0859               	movf	(splitFloat@val+2)^(0+128),w
  3564     0E44  1283               	bcf	3,5	;RP0=0, select bank0
  3565     0E45  1303               	bcf	3,6	;RP1=0, select bank0
  3566     0E46  00D2               	movwf	___flsub@b+2
  3567     0E47  1683               	bsf	3,5	;RP0=1, select bank1
  3568     0E48  1303               	bcf	3,6	;RP1=0, select bank1
  3569     0E49  0858               	movf	(splitFloat@val+1)^(0+128),w
  3570     0E4A  1283               	bcf	3,5	;RP0=0, select bank0
  3571     0E4B  1303               	bcf	3,6	;RP1=0, select bank0
  3572     0E4C  00D1               	movwf	___flsub@b+1
  3573     0E4D  1683               	bsf	3,5	;RP0=1, select bank1
  3574     0E4E  1303               	bcf	3,6	;RP1=0, select bank1
  3575     0E4F  0857               	movf	splitFloat@val^(0+128),w
  3576     0E50  1283               	bcf	3,5	;RP0=0, select bank0
  3577     0E51  1303               	bcf	3,6	;RP1=0, select bank0
  3578     0E52  00D0               	movwf	___flsub@b
  3579     0E53  1683               	bsf	3,5	;RP0=1, select bank1
  3580     0E54  1303               	bcf	3,6	;RP1=0, select bank1
  3581     0E55  085A               	movf	(splitFloat@val+3)^(0+128),w
  3582     0E56  1283               	bcf	3,5	;RP0=0, select bank0
  3583     0E57  1303               	bcf	3,6	;RP1=0, select bank0
  3584     0E58  00B7               	movwf	___fltol@f1+3
  3585     0E59  1683               	bsf	3,5	;RP0=1, select bank1
  3586     0E5A  1303               	bcf	3,6	;RP1=0, select bank1
  3587     0E5B  0859               	movf	(splitFloat@val+2)^(0+128),w
  3588     0E5C  1283               	bcf	3,5	;RP0=0, select bank0
  3589     0E5D  1303               	bcf	3,6	;RP1=0, select bank0
  3590     0E5E  00B6               	movwf	___fltol@f1+2
  3591     0E5F  1683               	bsf	3,5	;RP0=1, select bank1
  3592     0E60  1303               	bcf	3,6	;RP1=0, select bank1
  3593     0E61  0858               	movf	(splitFloat@val+1)^(0+128),w
  3594     0E62  1283               	bcf	3,5	;RP0=0, select bank0
  3595     0E63  1303               	bcf	3,6	;RP1=0, select bank0
  3596     0E64  00B5               	movwf	___fltol@f1+1
  3597     0E65  1683               	bsf	3,5	;RP0=1, select bank1
  3598     0E66  1303               	bcf	3,6	;RP1=0, select bank1
  3599     0E67  0857               	movf	splitFloat@val^(0+128),w
  3600     0E68  1283               	bcf	3,5	;RP0=0, select bank0
  3601     0E69  1303               	bcf	3,6	;RP1=0, select bank0
  3602     0E6A  00B4               	movwf	___fltol@f1
  3603     0E6B  160A  118A  22D2  120A  158A  	fcall	___fltol
  3604     0E70  1283               	bcf	3,5	;RP0=0, select bank0
  3605     0E71  1303               	bcf	3,6	;RP1=0, select bank0
  3606     0E72  0834               	movf	?___fltol,w
  3607     0E73  00BE               	movwf	___xxtofl@val
  3608     0E74  0835               	movf	?___fltol+1,w
  3609     0E75  00BF               	movwf	___xxtofl@val+1
  3610     0E76  3000               	movlw	0
  3611     0E77  1BBF               	btfsc	___xxtofl@val+1,7
  3612     0E78  30FF               	movlw	255
  3613     0E79  00C0               	movwf	___xxtofl@val+2
  3614     0E7A  00C1               	movwf	___xxtofl@val+3
  3615     0E7B  3001               	movlw	1
  3616     0E7C  160A  118A  23EC  120A  158A  	fcall	___xxtofl
  3617     0E81  1283               	bcf	3,5	;RP0=0, select bank0
  3618     0E82  1303               	bcf	3,6	;RP1=0, select bank0
  3619     0E83  0841               	movf	?___xxtofl+3,w
  3620     0E84  00CF               	movwf	___flsub@a+3
  3621     0E85  0840               	movf	?___xxtofl+2,w
  3622     0E86  00CE               	movwf	___flsub@a+2
  3623     0E87  083F               	movf	?___xxtofl+1,w
  3624     0E88  00CD               	movwf	___flsub@a+1
  3625     0E89  083E               	movf	?___xxtofl,w
  3626     0E8A  00CC               	movwf	___flsub@a
  3627     0E8B  160A  118A  212F  120A  158A  	fcall	___flsub
  3628     0E90  1283               	bcf	3,5	;RP0=0, select bank0
  3629     0E91  1303               	bcf	3,6	;RP1=0, select bank0
  3630     0E92  084F               	movf	?___flsub+3,w
  3631     0E93  00DB               	movwf	___flmul@a+3
  3632     0E94  084E               	movf	?___flsub+2,w
  3633     0E95  00DA               	movwf	___flmul@a+2
  3634     0E96  084D               	movf	?___flsub+1,w
  3635     0E97  00D9               	movwf	___flmul@a+1
  3636     0E98  084C               	movf	?___flsub,w
  3637     0E99  00D8               	movwf	___flmul@a
  3638     0E9A  3041               	movlw	65
  3639     0E9B  00D7               	movwf	___flmul@b+3
  3640     0E9C  3020               	movlw	32
  3641     0E9D  00D6               	movwf	___flmul@b+2
  3642     0E9E  3000               	movlw	0
  3643     0E9F  00D5               	movwf	___flmul@b+1
  3644     0EA0  3000               	movlw	0
  3645     0EA1  00D4               	movwf	___flmul@b
  3646     0EA2  120A  158A  2038  120A  158A  	fcall	___flmul
  3647     0EA7  1283               	bcf	3,5	;RP0=0, select bank0
  3648     0EA8  1303               	bcf	3,6	;RP1=0, select bank0
  3649     0EA9  0857               	movf	?___flmul+3,w
  3650     0EAA  1683               	bsf	3,5	;RP0=1, select bank3
  3651     0EAB  1703               	bsf	3,6	;RP1=1, select bank3
  3652     0EAC  00DE               	movwf	(_splitFloat$959+3)^(0+384)
  3653     0EAD  1283               	bcf	3,5	;RP0=0, select bank0
  3654     0EAE  1303               	bcf	3,6	;RP1=0, select bank0
  3655     0EAF  0856               	movf	?___flmul+2,w
  3656     0EB0  1683               	bsf	3,5	;RP0=1, select bank3
  3657     0EB1  1703               	bsf	3,6	;RP1=1, select bank3
  3658     0EB2  00DD               	movwf	(_splitFloat$959+2)^(0+384)
  3659     0EB3  1283               	bcf	3,5	;RP0=0, select bank0
  3660     0EB4  1303               	bcf	3,6	;RP1=0, select bank0
  3661     0EB5  0855               	movf	?___flmul+1,w
  3662     0EB6  1683               	bsf	3,5	;RP0=1, select bank3
  3663     0EB7  1703               	bsf	3,6	;RP1=1, select bank3
  3664     0EB8  00DC               	movwf	(_splitFloat$959+1)^(0+384)
  3665     0EB9  1283               	bcf	3,5	;RP0=0, select bank0
  3666     0EBA  1303               	bcf	3,6	;RP1=0, select bank0
  3667     0EBB  0854               	movf	?___flmul,w
  3668     0EBC  1683               	bsf	3,5	;RP0=1, select bank3
  3669     0EBD  1703               	bsf	3,6	;RP1=1, select bank3
  3670     0EBE  00DB               	movwf	_splitFloat$959^(0+384)
  3671     0EBF                     l2711:
  3672                           
  3673                           ;main.c: 232:     int mv_hun = (int)((val - (int)val) * 10) % 10;
  3674     0EBF  300A               	movlw	10
  3675     0EC0  1683               	bsf	3,5	;RP0=1, select bank1
  3676     0EC1  1303               	bcf	3,6	;RP1=0, select bank1
  3677     0EC2  00A0               	movwf	___awmod@divisor^(0+128)
  3678     0EC3  3000               	movlw	0
  3679     0EC4  00A1               	movwf	(___awmod@divisor^(0+128)+1)
  3680     0EC5  1683               	bsf	3,5	;RP0=1, select bank3
  3681     0EC6  1703               	bsf	3,6	;RP1=1, select bank3
  3682     0EC7  085E               	movf	(_splitFloat$959+3)^(0+384),w
  3683     0EC8  1283               	bcf	3,5	;RP0=0, select bank0
  3684     0EC9  1303               	bcf	3,6	;RP1=0, select bank0
  3685     0ECA  00B7               	movwf	___fltol@f1+3
  3686     0ECB  1683               	bsf	3,5	;RP0=1, select bank3
  3687     0ECC  1703               	bsf	3,6	;RP1=1, select bank3
  3688     0ECD  085D               	movf	(_splitFloat$959+2)^(0+384),w
  3689     0ECE  1283               	bcf	3,5	;RP0=0, select bank0
  3690     0ECF  1303               	bcf	3,6	;RP1=0, select bank0
  3691     0ED0  00B6               	movwf	___fltol@f1+2
  3692     0ED1  1683               	bsf	3,5	;RP0=1, select bank3
  3693     0ED2  1703               	bsf	3,6	;RP1=1, select bank3
  3694     0ED3  085C               	movf	(_splitFloat$959+1)^(0+384),w
  3695     0ED4  1283               	bcf	3,5	;RP0=0, select bank0
  3696     0ED5  1303               	bcf	3,6	;RP1=0, select bank0
  3697     0ED6  00B5               	movwf	___fltol@f1+1
  3698     0ED7  1683               	bsf	3,5	;RP0=1, select bank3
  3699     0ED8  1703               	bsf	3,6	;RP1=1, select bank3
  3700     0ED9  085B               	movf	_splitFloat$959^(0+384),w
  3701     0EDA  1283               	bcf	3,5	;RP0=0, select bank0
  3702     0EDB  1303               	bcf	3,6	;RP1=0, select bank0
  3703     0EDC  00B4               	movwf	___fltol@f1
  3704     0EDD  160A  118A  22D2  120A  158A  	fcall	___fltol
  3705     0EE2  1283               	bcf	3,5	;RP0=0, select bank0
  3706     0EE3  1303               	bcf	3,6	;RP1=0, select bank0
  3707     0EE4  0835               	movf	?___fltol+1,w
  3708     0EE5  1683               	bsf	3,5	;RP0=1, select bank1
  3709     0EE6  1303               	bcf	3,6	;RP1=0, select bank1
  3710     0EE7  00A3               	movwf	(___awmod@dividend+1)^(0+128)
  3711     0EE8  1283               	bcf	3,5	;RP0=0, select bank0
  3712     0EE9  1303               	bcf	3,6	;RP1=0, select bank0
  3713     0EEA  0834               	movf	?___fltol,w
  3714     0EEB  1683               	bsf	3,5	;RP0=1, select bank1
  3715     0EEC  1303               	bcf	3,6	;RP1=0, select bank1
  3716     0EED  00A2               	movwf	___awmod@dividend^(0+128)
  3717     0EEE  160A  118A  2264  120A  158A  	fcall	___awmod
  3718     0EF3  1683               	bsf	3,5	;RP0=1, select bank1
  3719     0EF4  1303               	bcf	3,6	;RP1=0, select bank1
  3720     0EF5  0821               	movf	(?___awmod+1)^(0+128),w
  3721     0EF6  1683               	bsf	3,5	;RP0=1, select bank3
  3722     0EF7  1703               	bsf	3,6	;RP1=1, select bank3
  3723     0EF8  00D8               	movwf	(splitFloat@mv_hun_296+1)^(0+384)
  3724     0EF9  1683               	bsf	3,5	;RP0=1, select bank1
  3725     0EFA  1303               	bcf	3,6	;RP1=0, select bank1
  3726     0EFB  0820               	movf	?___awmod^(0+128),w
  3727     0EFC  1683               	bsf	3,5	;RP0=1, select bank3
  3728     0EFD  1703               	bsf	3,6	;RP1=1, select bank3
  3729     0EFE  00D7               	movwf	splitFloat@mv_hun_296^(0+384)
  3730                           
  3731                           ;main.c: 233:     int mv_ten = (int)((val - (int)val) * 100) % 10;
  3732     0EFF  1683               	bsf	3,5	;RP0=1, select bank1
  3733     0F00  1303               	bcf	3,6	;RP1=0, select bank1
  3734     0F01  085A               	movf	(splitFloat@val+3)^(0+128),w
  3735     0F02  1283               	bcf	3,5	;RP0=0, select bank0
  3736     0F03  1303               	bcf	3,6	;RP1=0, select bank0
  3737     0F04  00D3               	movwf	___flsub@b+3
  3738     0F05  1683               	bsf	3,5	;RP0=1, select bank1
  3739     0F06  1303               	bcf	3,6	;RP1=0, select bank1
  3740     0F07  0859               	movf	(splitFloat@val+2)^(0+128),w
  3741     0F08  1283               	bcf	3,5	;RP0=0, select bank0
  3742     0F09  1303               	bcf	3,6	;RP1=0, select bank0
  3743     0F0A  00D2               	movwf	___flsub@b+2
  3744     0F0B  1683               	bsf	3,5	;RP0=1, select bank1
  3745     0F0C  1303               	bcf	3,6	;RP1=0, select bank1
  3746     0F0D  0858               	movf	(splitFloat@val+1)^(0+128),w
  3747     0F0E  1283               	bcf	3,5	;RP0=0, select bank0
  3748     0F0F  1303               	bcf	3,6	;RP1=0, select bank0
  3749     0F10  00D1               	movwf	___flsub@b+1
  3750     0F11  1683               	bsf	3,5	;RP0=1, select bank1
  3751     0F12  1303               	bcf	3,6	;RP1=0, select bank1
  3752     0F13  0857               	movf	splitFloat@val^(0+128),w
  3753     0F14  1283               	bcf	3,5	;RP0=0, select bank0
  3754     0F15  1303               	bcf	3,6	;RP1=0, select bank0
  3755     0F16  00D0               	movwf	___flsub@b
  3756     0F17  1683               	bsf	3,5	;RP0=1, select bank1
  3757     0F18  1303               	bcf	3,6	;RP1=0, select bank1
  3758     0F19  085A               	movf	(splitFloat@val+3)^(0+128),w
  3759     0F1A  1283               	bcf	3,5	;RP0=0, select bank0
  3760     0F1B  1303               	bcf	3,6	;RP1=0, select bank0
  3761     0F1C  00B7               	movwf	___fltol@f1+3
  3762     0F1D  1683               	bsf	3,5	;RP0=1, select bank1
  3763     0F1E  1303               	bcf	3,6	;RP1=0, select bank1
  3764     0F1F  0859               	movf	(splitFloat@val+2)^(0+128),w
  3765     0F20  1283               	bcf	3,5	;RP0=0, select bank0
  3766     0F21  1303               	bcf	3,6	;RP1=0, select bank0
  3767     0F22  00B6               	movwf	___fltol@f1+2
  3768     0F23  1683               	bsf	3,5	;RP0=1, select bank1
  3769     0F24  1303               	bcf	3,6	;RP1=0, select bank1
  3770     0F25  0858               	movf	(splitFloat@val+1)^(0+128),w
  3771     0F26  1283               	bcf	3,5	;RP0=0, select bank0
  3772     0F27  1303               	bcf	3,6	;RP1=0, select bank0
  3773     0F28  00B5               	movwf	___fltol@f1+1
  3774     0F29  1683               	bsf	3,5	;RP0=1, select bank1
  3775     0F2A  1303               	bcf	3,6	;RP1=0, select bank1
  3776     0F2B  0857               	movf	splitFloat@val^(0+128),w
  3777     0F2C  1283               	bcf	3,5	;RP0=0, select bank0
  3778     0F2D  1303               	bcf	3,6	;RP1=0, select bank0
  3779     0F2E  00B4               	movwf	___fltol@f1
  3780     0F2F  160A  118A  22D2  120A  158A  	fcall	___fltol
  3781     0F34  1283               	bcf	3,5	;RP0=0, select bank0
  3782     0F35  1303               	bcf	3,6	;RP1=0, select bank0
  3783     0F36  0834               	movf	?___fltol,w
  3784     0F37  00BE               	movwf	___xxtofl@val
  3785     0F38  0835               	movf	?___fltol+1,w
  3786     0F39  00BF               	movwf	___xxtofl@val+1
  3787     0F3A  3000               	movlw	0
  3788     0F3B  1BBF               	btfsc	___xxtofl@val+1,7
  3789     0F3C  30FF               	movlw	255
  3790     0F3D  00C0               	movwf	___xxtofl@val+2
  3791     0F3E  00C1               	movwf	___xxtofl@val+3
  3792     0F3F  3001               	movlw	1
  3793     0F40  160A  118A  23EC  120A  158A  	fcall	___xxtofl
  3794     0F45  1283               	bcf	3,5	;RP0=0, select bank0
  3795     0F46  1303               	bcf	3,6	;RP1=0, select bank0
  3796     0F47  0841               	movf	?___xxtofl+3,w
  3797     0F48  00CF               	movwf	___flsub@a+3
  3798     0F49  0840               	movf	?___xxtofl+2,w
  3799     0F4A  00CE               	movwf	___flsub@a+2
  3800     0F4B  083F               	movf	?___xxtofl+1,w
  3801     0F4C  00CD               	movwf	___flsub@a+1
  3802     0F4D  083E               	movf	?___xxtofl,w
  3803     0F4E  00CC               	movwf	___flsub@a
  3804     0F4F  160A  118A  212F  120A  158A  	fcall	___flsub
  3805     0F54  1283               	bcf	3,5	;RP0=0, select bank0
  3806     0F55  1303               	bcf	3,6	;RP1=0, select bank0
  3807     0F56  084F               	movf	?___flsub+3,w
  3808     0F57  00DB               	movwf	___flmul@a+3
  3809     0F58  084E               	movf	?___flsub+2,w
  3810     0F59  00DA               	movwf	___flmul@a+2
  3811     0F5A  084D               	movf	?___flsub+1,w
  3812     0F5B  00D9               	movwf	___flmul@a+1
  3813     0F5C  084C               	movf	?___flsub,w
  3814     0F5D  00D8               	movwf	___flmul@a
  3815     0F5E  3042               	movlw	66
  3816     0F5F  00D7               	movwf	___flmul@b+3
  3817     0F60  30C8               	movlw	200
  3818     0F61  00D6               	movwf	___flmul@b+2
  3819     0F62  3000               	movlw	0
  3820     0F63  00D5               	movwf	___flmul@b+1
  3821     0F64  3000               	movlw	0
  3822     0F65  00D4               	movwf	___flmul@b
  3823     0F66  120A  158A  2038  120A  158A  	fcall	___flmul
  3824     0F6B  1283               	bcf	3,5	;RP0=0, select bank0
  3825     0F6C  1303               	bcf	3,6	;RP1=0, select bank0
  3826     0F6D  0857               	movf	?___flmul+3,w
  3827     0F6E  1683               	bsf	3,5	;RP0=1, select bank3
  3828     0F6F  1703               	bsf	3,6	;RP1=1, select bank3
  3829     0F70  00DE               	movwf	(_splitFloat$959+3)^(0+384)
  3830     0F71  1283               	bcf	3,5	;RP0=0, select bank0
  3831     0F72  1303               	bcf	3,6	;RP1=0, select bank0
  3832     0F73  0856               	movf	?___flmul+2,w
  3833     0F74  1683               	bsf	3,5	;RP0=1, select bank3
  3834     0F75  1703               	bsf	3,6	;RP1=1, select bank3
  3835     0F76  00DD               	movwf	(_splitFloat$959+2)^(0+384)
  3836     0F77  1283               	bcf	3,5	;RP0=0, select bank0
  3837     0F78  1303               	bcf	3,6	;RP1=0, select bank0
  3838     0F79  0855               	movf	?___flmul+1,w
  3839     0F7A  1683               	bsf	3,5	;RP0=1, select bank3
  3840     0F7B  1703               	bsf	3,6	;RP1=1, select bank3
  3841     0F7C  00DC               	movwf	(_splitFloat$959+1)^(0+384)
  3842     0F7D  1283               	bcf	3,5	;RP0=0, select bank0
  3843     0F7E  1303               	bcf	3,6	;RP1=0, select bank0
  3844     0F7F  0854               	movf	?___flmul,w
  3845     0F80  1683               	bsf	3,5	;RP0=1, select bank3
  3846     0F81  1703               	bsf	3,6	;RP1=1, select bank3
  3847     0F82  00DB               	movwf	_splitFloat$959^(0+384)
  3848     0F83                     l2713:
  3849                           
  3850                           ;main.c: 233:     int mv_ten = (int)((val - (int)val) * 100) % 10;
  3851     0F83  300A               	movlw	10
  3852     0F84  1683               	bsf	3,5	;RP0=1, select bank1
  3853     0F85  1303               	bcf	3,6	;RP1=0, select bank1
  3854     0F86  00A0               	movwf	___awmod@divisor^(0+128)
  3855     0F87  3000               	movlw	0
  3856     0F88  00A1               	movwf	(___awmod@divisor^(0+128)+1)
  3857     0F89  1683               	bsf	3,5	;RP0=1, select bank3
  3858     0F8A  1703               	bsf	3,6	;RP1=1, select bank3
  3859     0F8B  085E               	movf	(_splitFloat$959+3)^(0+384),w
  3860     0F8C  1283               	bcf	3,5	;RP0=0, select bank0
  3861     0F8D  1303               	bcf	3,6	;RP1=0, select bank0
  3862     0F8E  00B7               	movwf	___fltol@f1+3
  3863     0F8F  1683               	bsf	3,5	;RP0=1, select bank3
  3864     0F90  1703               	bsf	3,6	;RP1=1, select bank3
  3865     0F91  085D               	movf	(_splitFloat$959+2)^(0+384),w
  3866     0F92  1283               	bcf	3,5	;RP0=0, select bank0
  3867     0F93  1303               	bcf	3,6	;RP1=0, select bank0
  3868     0F94  00B6               	movwf	___fltol@f1+2
  3869     0F95  1683               	bsf	3,5	;RP0=1, select bank3
  3870     0F96  1703               	bsf	3,6	;RP1=1, select bank3
  3871     0F97  085C               	movf	(_splitFloat$959+1)^(0+384),w
  3872     0F98  1283               	bcf	3,5	;RP0=0, select bank0
  3873     0F99  1303               	bcf	3,6	;RP1=0, select bank0
  3874     0F9A  00B5               	movwf	___fltol@f1+1
  3875     0F9B  1683               	bsf	3,5	;RP0=1, select bank3
  3876     0F9C  1703               	bsf	3,6	;RP1=1, select bank3
  3877     0F9D  085B               	movf	_splitFloat$959^(0+384),w
  3878     0F9E  1283               	bcf	3,5	;RP0=0, select bank0
  3879     0F9F  1303               	bcf	3,6	;RP1=0, select bank0
  3880     0FA0  00B4               	movwf	___fltol@f1
  3881     0FA1  160A  118A  22D2  120A  158A  	fcall	___fltol
  3882     0FA6  1283               	bcf	3,5	;RP0=0, select bank0
  3883     0FA7  1303               	bcf	3,6	;RP1=0, select bank0
  3884     0FA8  0835               	movf	?___fltol+1,w
  3885     0FA9  1683               	bsf	3,5	;RP0=1, select bank1
  3886     0FAA  1303               	bcf	3,6	;RP1=0, select bank1
  3887     0FAB  00A3               	movwf	(___awmod@dividend+1)^(0+128)
  3888     0FAC  1283               	bcf	3,5	;RP0=0, select bank0
  3889     0FAD  1303               	bcf	3,6	;RP1=0, select bank0
  3890     0FAE  0834               	movf	?___fltol,w
  3891     0FAF  1683               	bsf	3,5	;RP0=1, select bank1
  3892     0FB0  1303               	bcf	3,6	;RP1=0, select bank1
  3893     0FB1  00A2               	movwf	___awmod@dividend^(0+128)
  3894     0FB2  160A  118A  2264  120A  158A  	fcall	___awmod
  3895     0FB7  1683               	bsf	3,5	;RP0=1, select bank1
  3896     0FB8  1303               	bcf	3,6	;RP1=0, select bank1
  3897     0FB9  0821               	movf	(?___awmod+1)^(0+128),w
  3898     0FBA  1683               	bsf	3,5	;RP0=1, select bank3
  3899     0FBB  1703               	bsf	3,6	;RP1=1, select bank3
  3900     0FBC  00DA               	movwf	(splitFloat@mv_ten_297+1)^(0+384)
  3901     0FBD  1683               	bsf	3,5	;RP0=1, select bank1
  3902     0FBE  1303               	bcf	3,6	;RP1=0, select bank1
  3903     0FBF  0820               	movf	?___awmod^(0+128),w
  3904     0FC0  1683               	bsf	3,5	;RP0=1, select bank3
  3905     0FC1  1703               	bsf	3,6	;RP1=1, select bank3
  3906     0FC2  00D9               	movwf	splitFloat@mv_ten_297^(0+384)
  3907     0FC3                     l2715:
  3908                           
  3909                           ;main.c: 234:     *d_1000 = SS1_BCD[v_ten];
  3910     0FC3  0853               	movf	splitFloat@v_ten^(0+384),w
  3911     0FC4  1683               	bsf	3,5	;RP0=1, select bank1
  3912     0FC5  1303               	bcf	3,6	;RP1=0, select bank1
  3913     0FC6  00DF               	movwf	??_splitFloat^(0+128)
  3914     0FC7  075F               	addwf	??_splitFloat^(0+128),w
  3915     0FC8  3EB1               	addlw	(low (_SS1_BCD| (0+256)))& (0+255)
  3916     0FC9  0084               	movwf	4
  3917     0FCA  1783               	bsf	3,7	;select IRP bank3
  3918     0FCB  0800               	movf	0,w
  3919     0FCC  00E0               	movwf	(??_splitFloat+1)^(0+128)
  3920     0FCD  085B               	movf	splitFloat@d_1000^(0+128),w
  3921     0FCE  0084               	movwf	4
  3922     0FCF  0860               	movf	(??_splitFloat+1)^(0+128),w
  3923     0FD0  0080               	movwf	0
  3924     0FD1                     l2717:
  3925                           
  3926                           ;main.c: 235:     *d_100 = SS2_BCD[v_one] | 0x08;
  3927     0FD1  1683               	bsf	3,5	;RP0=1, select bank3
  3928     0FD2  1703               	bsf	3,6	;RP1=1, select bank3
  3929     0FD3  0855               	movf	splitFloat@v_one_295^(0+384),w
  3930     0FD4  1683               	bsf	3,5	;RP0=1, select bank1
  3931     0FD5  1303               	bcf	3,6	;RP1=0, select bank1
  3932     0FD6  00DF               	movwf	??_splitFloat^(0+128)
  3933     0FD7  075F               	addwf	??_splitFloat^(0+128),w
  3934     0FD8  3E28               	addlw	(low (_SS2_BCD| (0+256)))& (0+255)
  3935     0FD9  0084               	movwf	4
  3936     0FDA  0800               	movf	0,w
  3937     0FDB  3808               	iorlw	8
  3938     0FDC  00E0               	movwf	(??_splitFloat+1)^(0+128)
  3939     0FDD  085C               	movf	splitFloat@d_100^(0+128),w
  3940     0FDE  0084               	movwf	4
  3941     0FDF  0860               	movf	(??_splitFloat+1)^(0+128),w
  3942     0FE0  0080               	movwf	0
  3943     0FE1                     l2719:
  3944                           
  3945                           ;main.c: 236:     *d_10 = SS1_BCD[mv_hun];
  3946     0FE1  1683               	bsf	3,5	;RP0=1, select bank3
  3947     0FE2  1703               	bsf	3,6	;RP1=1, select bank3
  3948     0FE3  0857               	movf	splitFloat@mv_hun_296^(0+384),w
  3949     0FE4  1683               	bsf	3,5	;RP0=1, select bank1
  3950     0FE5  1303               	bcf	3,6	;RP1=0, select bank1
  3951     0FE6  00DF               	movwf	??_splitFloat^(0+128)
  3952     0FE7  075F               	addwf	??_splitFloat^(0+128),w
  3953     0FE8  3EB1               	addlw	(low (_SS1_BCD| (0+256)))& (0+255)
  3954     0FE9  0084               	movwf	4
  3955     0FEA  0800               	movf	0,w
  3956     0FEB  00E0               	movwf	(??_splitFloat+1)^(0+128)
  3957     0FEC  085D               	movf	splitFloat@d_10^(0+128),w
  3958     0FED  0084               	movwf	4
  3959     0FEE  0860               	movf	(??_splitFloat+1)^(0+128),w
  3960     0FEF  0080               	movwf	0
  3961     0FF0                     l2721:
  3962                           
  3963                           ;main.c: 237:     *d_1 = SS2_BCD[mv_ten];
  3964     0FF0  1683               	bsf	3,5	;RP0=1, select bank3
  3965     0FF1  1703               	bsf	3,6	;RP1=1, select bank3
  3966     0FF2  0859               	movf	splitFloat@mv_ten_297^(0+384),w
  3967     0FF3  1683               	bsf	3,5	;RP0=1, select bank1
  3968     0FF4  1303               	bcf	3,6	;RP1=0, select bank1
  3969     0FF5  00DF               	movwf	??_splitFloat^(0+128)
  3970     0FF6  075F               	addwf	??_splitFloat^(0+128),w
  3971     0FF7  3E28               	addlw	(low (_SS2_BCD| (0+256)))& (0+255)
  3972     0FF8  0084               	movwf	4
  3973     0FF9  0800               	movf	0,w
  3974     0FFA  00E0               	movwf	(??_splitFloat+1)^(0+128)
  3975     0FFB  085E               	movf	splitFloat@d_1^(0+128),w
  3976     0FFC  0084               	movwf	4
  3977     0FFD  0860               	movf	(??_splitFloat+1)^(0+128),w
  3978     0FFE  0080               	movwf	0
  3979     0FFF                     l165:
  3980     0FFF  0008               	return
  3981     1000                     __end_of_splitFloat:
  3982                           
  3983                           	psect	text3
  3984     12D2                     __ptext3:	
  3985 ;; *************** function ___fltol *****************
  3986 ;; Defined at:
  3987 ;;		line 43 in file "C:\Program Files\Microchip\xc8\v3.10\pic\sources\c99\common\fltol.c"
  3988 ;; Parameters:    Size  Location     Type
  3989 ;;  f1              4   20[BANK0 ] void 
  3990 ;; Auto vars:     Size  Location     Type
  3991 ;;  exp1            1   29[BANK0 ] unsigned char 
  3992 ;;  sign1           1   28[BANK0 ] unsigned char 
  3993 ;; Return value:  Size  Location     Type
  3994 ;;                  4   20[BANK0 ] long 
  3995 ;; Registers used:
  3996 ;;		wreg, status,2, status,0
  3997 ;; Tracked objects:
  3998 ;;		On entry : 0/0
  3999 ;;		On exit  : 0/0
  4000 ;;		Unchanged: 0/0
  4001 ;; Data sizes:     COMMON   BANK0   BANK1   BANK3   BANK2
  4002 ;;      Params:         0       4       0       0       0
  4003 ;;      Locals:         0       2       0       0       0
  4004 ;;      Temps:          0       4       0       0       0
  4005 ;;      Totals:         0      10       0       0       0
  4006 ;;Total ram usage:       10 bytes
  4007 ;; Hardware stack levels used: 1
  4008 ;; Hardware stack levels required when called: 2
  4009 ;; This function calls:
  4010 ;;		Nothing
  4011 ;; This function is called by:
  4012 ;;		_splitFloat
  4013 ;; This function uses a non-reentrant model
  4014 ;;
  4015                           
  4016     12D2                     ___fltol:	
  4017                           ;psect for function ___fltol
  4018                           
  4019     12D2                     l2283:	
  4020                           ;incstack = 0
  4021                           ; Regs used in ___fltol: [wreg+status,2+status,0]
  4022                           
  4023     12D2  1003               	clrc
  4024     12D3  1283               	bcf	3,5	;RP0=0, select bank0
  4025     12D4  1303               	bcf	3,6	;RP1=0, select bank0
  4026     12D5  0D36               	rlf	___fltol@f1+2,w
  4027     12D6  0D37               	rlf	___fltol@f1+3,w
  4028     12D7  00BD               	movwf	___fltol@exp1
  4029     12D8  083D               	movf	___fltol@exp1,w
  4030     12D9  1D03               	btfss	3,2
  4031     12DA  2ADC               	goto	u3101
  4032     12DB  2ADD               	goto	u3100
  4033     12DC                     u3101:
  4034     12DC  2AE6               	goto	l2289
  4035     12DD                     u3100:
  4036     12DD                     l2285:
  4037     12DD  3000               	movlw	0
  4038     12DE  00B7               	movwf	?___fltol+3
  4039     12DF  3000               	movlw	0
  4040     12E0  00B6               	movwf	?___fltol+2
  4041     12E1  3000               	movlw	0
  4042     12E2  00B5               	movwf	?___fltol+1
  4043     12E3  3000               	movlw	0
  4044     12E4  00B4               	movwf	?___fltol
  4045     12E5  2B47               	goto	l545
  4046     12E6                     l2289:
  4047     12E6  0834               	movf	___fltol@f1,w
  4048     12E7  00B8               	movwf	??___fltol
  4049     12E8  0835               	movf	___fltol@f1+1,w
  4050     12E9  00B9               	movwf	??___fltol+1
  4051     12EA  0836               	movf	___fltol@f1+2,w
  4052     12EB  00BA               	movwf	??___fltol+2
  4053     12EC  0837               	movf	___fltol@f1+3,w
  4054     12ED  00BB               	movwf	??___fltol+3
  4055     12EE  301F               	movlw	31
  4056     12EF                     u3115:
  4057     12EF  1003               	clrc
  4058     12F0  0CBB               	rrf	??___fltol+3,f
  4059     12F1  0CBA               	rrf	??___fltol+2,f
  4060     12F2  0CB9               	rrf	??___fltol+1,f
  4061     12F3  0CB8               	rrf	??___fltol,f
  4062     12F4                     u3110:
  4063     12F4  3EFF               	addlw	-1
  4064     12F5  1D03               	skipz
  4065     12F6  2AEF               	goto	u3115
  4066     12F7  0838               	movf	??___fltol,w
  4067     12F8  00BC               	movwf	___fltol@sign1
  4068     12F9                     l2291:
  4069     12F9  17B6               	bsf	___fltol@f1+2,7
  4070     12FA                     l2293:
  4071     12FA  30FF               	movlw	255
  4072     12FB  05B4               	andwf	___fltol@f1,f
  4073     12FC  30FF               	movlw	255
  4074     12FD  05B5               	andwf	___fltol@f1+1,f
  4075     12FE  30FF               	movlw	255
  4076     12FF  05B6               	andwf	___fltol@f1+2,f
  4077     1300  3000               	movlw	0
  4078     1301  05B7               	andwf	___fltol@f1+3,f
  4079     1302                     l2295:
  4080     1302  3096               	movlw	150
  4081     1303  02BD               	subwf	___fltol@exp1,f
  4082     1304                     l2297:
  4083     1304  1FBD               	btfss	___fltol@exp1,7
  4084     1305  2B07               	goto	u3121
  4085     1306  2B08               	goto	u3120
  4086     1307                     u3121:
  4087     1307  2B20               	goto	l2307
  4088     1308                     u3120:
  4089     1308                     l2299:
  4090     1308  083D               	movf	___fltol@exp1,w
  4091     1309  3A80               	xorlw	128
  4092     130A  3E97               	addlw	151
  4093     130B  1803               	skipnc
  4094     130C  2B0E               	goto	u3131
  4095     130D  2B0F               	goto	u3130
  4096     130E                     u3131:
  4097     130E  2B10               	goto	l2305
  4098     130F                     u3130:
  4099     130F  2ADD               	goto	l2285
  4100     1310                     l2305:
  4101     1310  3001               	movlw	1
  4102     1311                     u3145:
  4103     1311  1003               	clrc
  4104     1312  0CB7               	rrf	___fltol@f1+3,f
  4105     1313  0CB6               	rrf	___fltol@f1+2,f
  4106     1314  0CB5               	rrf	___fltol@f1+1,f
  4107     1315  0CB4               	rrf	___fltol@f1,f
  4108     1316  3EFF               	addlw	-1
  4109     1317  1D03               	skipz
  4110     1318  2B11               	goto	u3145
  4111     1319  3001               	movlw	1
  4112     131A  07BD               	addwf	___fltol@exp1,f
  4113     131B  1D03               	btfss	3,2
  4114     131C  2B1E               	goto	u3151
  4115     131D  2B1F               	goto	u3150
  4116     131E                     u3151:
  4117     131E  2B10               	goto	l2305
  4118     131F                     u3150:
  4119     131F  2B37               	goto	l2315
  4120     1320                     l2307:
  4121     1320  3020               	movlw	32
  4122     1321  023D               	subwf	___fltol@exp1,w
  4123     1322  1C03               	skipc
  4124     1323  2B25               	goto	u3161
  4125     1324  2B26               	goto	u3160
  4126     1325                     u3161:
  4127     1325  2B32               	goto	l552
  4128     1326                     u3160:
  4129     1326  2ADD               	goto	l2285
  4130     1327                     l2313:
  4131     1327  3001               	movlw	1
  4132     1328  00B8               	movwf	??___fltol
  4133     1329                     u3175:
  4134     1329  1003               	clrc
  4135     132A  0DB4               	rlf	___fltol@f1,f
  4136     132B  0DB5               	rlf	___fltol@f1+1,f
  4137     132C  0DB6               	rlf	___fltol@f1+2,f
  4138     132D  0DB7               	rlf	___fltol@f1+3,f
  4139     132E  0BB8               	decfsz	??___fltol,f
  4140     132F  2B29               	goto	u3175
  4141     1330  3001               	movlw	1
  4142     1331  02BD               	subwf	___fltol@exp1,f
  4143     1332                     l552:
  4144     1332  083D               	movf	___fltol@exp1,w
  4145     1333  1D03               	btfss	3,2
  4146     1334  2B36               	goto	u3181
  4147     1335  2B37               	goto	u3180
  4148     1336                     u3181:
  4149     1336  2B27               	goto	l2313
  4150     1337                     u3180:
  4151     1337                     l2315:
  4152     1337  083C               	movf	___fltol@sign1,w
  4153     1338  1903               	btfsc	3,2
  4154     1339  2B3B               	goto	u3191
  4155     133A  2B3C               	goto	u3190
  4156     133B                     u3191:
  4157     133B  2B47               	goto	l555
  4158     133C                     u3190:
  4159     133C                     l2317:
  4160     133C  09B4               	comf	___fltol@f1,f
  4161     133D  09B5               	comf	___fltol@f1+1,f
  4162     133E  09B6               	comf	___fltol@f1+2,f
  4163     133F  09B7               	comf	___fltol@f1+3,f
  4164     1340  0AB4               	incf	___fltol@f1,f
  4165     1341  1903               	skipnz
  4166     1342  0AB5               	incf	___fltol@f1+1,f
  4167     1343  1903               	skipnz
  4168     1344  0AB6               	incf	___fltol@f1+2,f
  4169     1345  1903               	skipnz
  4170     1346  0AB7               	incf	___fltol@f1+3,f
  4171     1347                     l555:
  4172     1347                     l545:
  4173     1347  0008               	return
  4174     1348                     __end_of___fltol:
  4175                           
  4176                           	psect	text4
  4177     112F                     __ptext4:	
  4178 ;; *************** function ___flsub *****************
  4179 ;; Defined at:
  4180 ;;		line 242 in file "C:\Program Files\Microchip\xc8\v3.10\pic\sources\c99\common\sprcadd.c"
  4181 ;; Parameters:    Size  Location     Type
  4182 ;;  a               4   44[BANK0 ] long 
  4183 ;;  b               4   48[BANK0 ] long 
  4184 ;; Auto vars:     Size  Location     Type
  4185 ;;		None
  4186 ;; Return value:  Size  Location     Type
  4187 ;;                  4   44[BANK0 ] long 
  4188 ;; Registers used:
  4189 ;;		wreg, status,2, status,0, pclath, btemp1, cstack
  4190 ;; Tracked objects:
  4191 ;;		On entry : 0/0
  4192 ;;		On exit  : 0/0
  4193 ;;		Unchanged: 0/0
  4194 ;; Data sizes:     COMMON   BANK0   BANK1   BANK3   BANK2
  4195 ;;      Params:         0       8       0       0       0
  4196 ;;      Locals:         0       0       0       0       0
  4197 ;;      Temps:          0       0       0       0       0
  4198 ;;      Totals:         0       8       0       0       0
  4199 ;;Total ram usage:        8 bytes
  4200 ;; Hardware stack levels used: 1
  4201 ;; Hardware stack levels required when called: 2
  4202 ;; This function calls:
  4203 ;;		___fladd
  4204 ;; This function is called by:
  4205 ;;		_splitFloat
  4206 ;;		_main
  4207 ;; This function uses a non-reentrant model
  4208 ;;
  4209                           
  4210     112F                     ___flsub:	
  4211                           ;psect for function ___flsub
  4212                           
  4213     112F                     l2319:	
  4214                           ;incstack = 0
  4215                           ; Regs used in ___flsub: [wreg+status,2+status,0+pclath+btemp1+cstack]
  4216                           
  4217     112F  3080               	movlw	128
  4218     1130  1283               	bcf	3,5	;RP0=0, select bank0
  4219     1131  1303               	bcf	3,6	;RP1=0, select bank0
  4220     1132  06CF               	xorwf	___flsub@a+3,f
  4221     1133                     l2321:
  4222     1133  0853               	movf	___flsub@b+3,w
  4223     1134  00A3               	movwf	___fladd@b+3
  4224     1135  0852               	movf	___flsub@b+2,w
  4225     1136  00A2               	movwf	___fladd@b+2
  4226     1137  0851               	movf	___flsub@b+1,w
  4227     1138  00A1               	movwf	___fladd@b+1
  4228     1139  0850               	movf	___flsub@b,w
  4229     113A  00A0               	movwf	___fladd@b
  4230     113B  084F               	movf	___flsub@a+3,w
  4231     113C  00A7               	movwf	___fladd@a+3
  4232     113D  084E               	movf	___flsub@a+2,w
  4233     113E  00A6               	movwf	___fladd@a+2
  4234     113F  084D               	movf	___flsub@a+1,w
  4235     1140  00A5               	movwf	___fladd@a+1
  4236     1141  084C               	movf	___flsub@a,w
  4237     1142  00A4               	movwf	___fladd@a
  4238     1143  120A  118A  255D  160A  118A  	fcall	___fladd
  4239     1148  1283               	bcf	3,5	;RP0=0, select bank0
  4240     1149  1303               	bcf	3,6	;RP1=0, select bank0
  4241     114A  0823               	movf	?___fladd+3,w
  4242     114B  00CF               	movwf	?___flsub+3
  4243     114C  0822               	movf	?___fladd+2,w
  4244     114D  00CE               	movwf	?___flsub+2
  4245     114E  0821               	movf	?___fladd+1,w
  4246     114F  00CD               	movwf	?___flsub+1
  4247     1150  0820               	movf	?___fladd,w
  4248     1151  00CC               	movwf	?___flsub
  4249     1152                     l698:
  4250     1152  0008               	return
  4251     1153                     __end_of___flsub:
  4252                           
  4253                           	psect	text5
  4254     055D                     __ptext5:	
  4255 ;; *************** function ___fladd *****************
  4256 ;; Defined at:
  4257 ;;		line 10 in file "C:\Program Files\Microchip\xc8\v3.10\pic\sources\c99\common\sprcadd.c"
  4258 ;; Parameters:    Size  Location     Type
  4259 ;;  b               4    0[BANK0 ] long 
  4260 ;;  a               4    4[BANK0 ] long 
  4261 ;; Auto vars:     Size  Location     Type
  4262 ;;  grs             1   19[BANK0 ] unsigned char 
  4263 ;;  bexp            1   18[BANK0 ] unsigned char 
  4264 ;;  aexp            1   17[BANK0 ] unsigned char 
  4265 ;;  signs           1   16[BANK0 ] unsigned char 
  4266 ;; Return value:  Size  Location     Type
  4267 ;;                  4    0[BANK0 ] unsigned char 
  4268 ;; Registers used:
  4269 ;;		wreg, status,2, status,0, btemp1
  4270 ;; Tracked objects:
  4271 ;;		On entry : 0/0
  4272 ;;		On exit  : 0/0
  4273 ;;		Unchanged: 0/0
  4274 ;; Data sizes:     COMMON   BANK0   BANK1   BANK3   BANK2
  4275 ;;      Params:         0       8       0       0       0
  4276 ;;      Locals:         0       4       0       0       0
  4277 ;;      Temps:          0       8       0       0       0
  4278 ;;      Totals:         0      20       0       0       0
  4279 ;;Total ram usage:       20 bytes
  4280 ;; Hardware stack levels used: 1
  4281 ;; Hardware stack levels required when called: 2
  4282 ;; This function calls:
  4283 ;;		Nothing
  4284 ;; This function is called by:
  4285 ;;		___flsub
  4286 ;; This function uses a non-reentrant model
  4287 ;;
  4288                           
  4289     055D                     ___fladd:	
  4290                           ;psect for function ___fladd
  4291                           
  4292     055D                     l1957:	
  4293                           ;incstack = 0
  4294                           ; Regs used in ___fladd: [wreg+status,2+status,0+btemp1]
  4295                           
  4296     055D  1283               	bcf	3,5	;RP0=0, select bank0
  4297     055E  1303               	bcf	3,6	;RP1=0, select bank0
  4298     055F  0823               	movf	___fladd@b+3,w
  4299     0560  00B0               	movwf	___fladd@signs
  4300     0561                     l1959:
  4301     0561  3080               	movlw	128
  4302     0562  05B0               	andwf	___fladd@signs,f
  4303     0563                     l1961:
  4304     0563  0823               	movf	___fladd@b+3,w
  4305     0564  00A8               	movwf	??___fladd
  4306     0565  0728               	addwf	??___fladd,w
  4307     0566  00B2               	movwf	___fladd@bexp
  4308     0567                     l1963:
  4309     0567  1FA2               	btfss	___fladd@b+2,7
  4310     0568  2D6A               	goto	u2331
  4311     0569  2D6B               	goto	u2330
  4312     056A                     u2331:
  4313     056A  2D6C               	goto	l1967
  4314     056B                     u2330:
  4315     056B                     l1965:
  4316     056B  1432               	bsf	___fladd@bexp,0
  4317     056C                     l1967:
  4318     056C  0832               	movf	___fladd@bexp,w
  4319     056D  1903               	btfsc	3,2
  4320     056E  2D70               	goto	u2341
  4321     056F  2D71               	goto	u2340
  4322     0570                     u2341:
  4323     0570  2D81               	goto	l1977
  4324     0571                     u2340:
  4325     0571                     l1969:
  4326     0571  0A32               	incf	___fladd@bexp,w
  4327     0572  1D03               	btfss	3,2
  4328     0573  2D75               	goto	u2351
  4329     0574  2D76               	goto	u2350
  4330     0575                     u2351:
  4331     0575  2D7E               	goto	l1973
  4332     0576                     u2350:
  4333     0576                     l1971:
  4334     0576  3000               	movlw	0
  4335     0577  00A3               	movwf	___fladd@b+3
  4336     0578  3000               	movlw	0
  4337     0579  00A2               	movwf	___fladd@b+2
  4338     057A  3000               	movlw	0
  4339     057B  00A1               	movwf	___fladd@b+1
  4340     057C  3000               	movlw	0
  4341     057D  00A0               	movwf	___fladd@b
  4342     057E                     l1973:
  4343     057E  17A2               	bsf	___fladd@b+2,7
  4344     057F                     l1975:
  4345     057F  01A3               	clrf	___fladd@b+3
  4346     0580  2D89               	goto	l647
  4347     0581                     l1977:
  4348     0581  3000               	movlw	0
  4349     0582  00A3               	movwf	___fladd@b+3
  4350     0583  3000               	movlw	0
  4351     0584  00A2               	movwf	___fladd@b+2
  4352     0585  3000               	movlw	0
  4353     0586  00A1               	movwf	___fladd@b+1
  4354     0587  3000               	movlw	0
  4355     0588  00A0               	movwf	___fladd@b
  4356     0589                     l647:
  4357     0589  0827               	movf	___fladd@a+3,w
  4358     058A  00B1               	movwf	___fladd@aexp
  4359     058B                     l1979:
  4360     058B  3080               	movlw	128
  4361     058C  05B1               	andwf	___fladd@aexp,f
  4362     058D                     l1981:
  4363     058D  0831               	movf	___fladd@aexp,w
  4364     058E  0630               	xorwf	___fladd@signs,w
  4365     058F  1903               	skipnz
  4366     0590  2D92               	goto	u2361
  4367     0591  2D93               	goto	u2360
  4368     0592                     u2361:
  4369     0592  2D94               	goto	l1985
  4370     0593                     u2360:
  4371     0593                     l1983:
  4372     0593  1730               	bsf	___fladd@signs,6
  4373     0594                     l1985:
  4374     0594  0827               	movf	___fladd@a+3,w
  4375     0595  00A8               	movwf	??___fladd
  4376     0596  0728               	addwf	??___fladd,w
  4377     0597  00B1               	movwf	___fladd@aexp
  4378     0598                     l1987:
  4379     0598  1FA6               	btfss	___fladd@a+2,7
  4380     0599  2D9B               	goto	u2371
  4381     059A  2D9C               	goto	u2370
  4382     059B                     u2371:
  4383     059B  2D9D               	goto	l1991
  4384     059C                     u2370:
  4385     059C                     l1989:
  4386     059C  1431               	bsf	___fladd@aexp,0
  4387     059D                     l1991:
  4388     059D  0831               	movf	___fladd@aexp,w
  4389     059E  1903               	btfsc	3,2
  4390     059F  2DA1               	goto	u2381
  4391     05A0  2DA2               	goto	u2380
  4392     05A1                     u2381:
  4393     05A1  2DB2               	goto	l2001
  4394     05A2                     u2380:
  4395     05A2                     l1993:
  4396     05A2  0A31               	incf	___fladd@aexp,w
  4397     05A3  1D03               	btfss	3,2
  4398     05A4  2DA6               	goto	u2391
  4399     05A5  2DA7               	goto	u2390
  4400     05A6                     u2391:
  4401     05A6  2DAF               	goto	l1997
  4402     05A7                     u2390:
  4403     05A7                     l1995:
  4404     05A7  3000               	movlw	0
  4405     05A8  00A7               	movwf	___fladd@a+3
  4406     05A9  3000               	movlw	0
  4407     05AA  00A6               	movwf	___fladd@a+2
  4408     05AB  3000               	movlw	0
  4409     05AC  00A5               	movwf	___fladd@a+1
  4410     05AD  3000               	movlw	0
  4411     05AE  00A4               	movwf	___fladd@a
  4412     05AF                     l1997:
  4413     05AF  17A6               	bsf	___fladd@a+2,7
  4414     05B0                     l1999:
  4415     05B0  01A7               	clrf	___fladd@a+3
  4416     05B1  2DBA               	goto	l652
  4417     05B2                     l2001:
  4418     05B2  3000               	movlw	0
  4419     05B3  00A7               	movwf	___fladd@a+3
  4420     05B4  3000               	movlw	0
  4421     05B5  00A6               	movwf	___fladd@a+2
  4422     05B6  3000               	movlw	0
  4423     05B7  00A5               	movwf	___fladd@a+1
  4424     05B8  3000               	movlw	0
  4425     05B9  00A4               	movwf	___fladd@a
  4426     05BA                     l652:
  4427     05BA  0832               	movf	___fladd@bexp,w
  4428     05BB  0231               	subwf	___fladd@aexp,w
  4429     05BC  1803               	skipnc
  4430     05BD  2DBF               	goto	u2401
  4431     05BE  2DC0               	goto	u2400
  4432     05BF                     u2401:
  4433     05BF  2DE4               	goto	l2037
  4434     05C0                     u2400:
  4435     05C0                     l2003:
  4436     05C0  1F30               	btfss	___fladd@signs,6
  4437     05C1  2DC3               	goto	u2411
  4438     05C2  2DC4               	goto	u2410
  4439     05C3                     u2411:
  4440     05C3  2DC6               	goto	l2007
  4441     05C4                     u2410:
  4442     05C4                     l2005:
  4443     05C4  3080               	movlw	128
  4444     05C5  06B0               	xorwf	___fladd@signs,f
  4445     05C6                     l2007:
  4446     05C6  0832               	movf	___fladd@bexp,w
  4447     05C7  00B3               	movwf	___fladd@grs
  4448     05C8                     l2009:
  4449     05C8  0831               	movf	___fladd@aexp,w
  4450     05C9  00B2               	movwf	___fladd@bexp
  4451     05CA                     l2011:
  4452     05CA  0833               	movf	___fladd@grs,w
  4453     05CB  00B1               	movwf	___fladd@aexp
  4454     05CC                     l2013:
  4455     05CC  0820               	movf	___fladd@b,w
  4456     05CD  00B3               	movwf	___fladd@grs
  4457     05CE                     l2015:
  4458     05CE  0824               	movf	___fladd@a,w
  4459     05CF  00A0               	movwf	___fladd@b
  4460     05D0                     l2017:
  4461     05D0  0833               	movf	___fladd@grs,w
  4462     05D1  00A4               	movwf	___fladd@a
  4463     05D2                     l2019:
  4464     05D2  0821               	movf	___fladd@b+1,w
  4465     05D3  00B3               	movwf	___fladd@grs
  4466     05D4                     l2021:
  4467     05D4  0825               	movf	___fladd@a+1,w
  4468     05D5  00A1               	movwf	___fladd@b+1
  4469     05D6                     l2023:
  4470     05D6  0833               	movf	___fladd@grs,w
  4471     05D7  00A5               	movwf	___fladd@a+1
  4472     05D8                     l2025:
  4473     05D8  0822               	movf	___fladd@b+2,w
  4474     05D9  00B3               	movwf	___fladd@grs
  4475     05DA                     l2027:
  4476     05DA  0826               	movf	___fladd@a+2,w
  4477     05DB  00A2               	movwf	___fladd@b+2
  4478     05DC                     l2029:
  4479     05DC  0833               	movf	___fladd@grs,w
  4480     05DD  00A6               	movwf	___fladd@a+2
  4481     05DE                     l2031:
  4482     05DE  0823               	movf	___fladd@b+3,w
  4483     05DF  00B3               	movwf	___fladd@grs
  4484     05E0                     l2033:
  4485     05E0  0827               	movf	___fladd@a+3,w
  4486     05E1  00A3               	movwf	___fladd@b+3
  4487     05E2                     l2035:
  4488     05E2  0833               	movf	___fladd@grs,w
  4489     05E3  00A7               	movwf	___fladd@a+3
  4490     05E4                     l2037:
  4491     05E4  01B3               	clrf	___fladd@grs
  4492     05E5                     l2039:
  4493     05E5  0831               	movf	___fladd@aexp,w
  4494     05E6  00A8               	movwf	??___fladd
  4495     05E7  01A9               	clrf	??___fladd+1
  4496     05E8  0829               	movf	??___fladd+1,w
  4497     05E9  00AB               	movwf	??___fladd+3
  4498     05EA  0832               	movf	___fladd@bexp,w
  4499     05EB  0228               	subwf	??___fladd,w
  4500     05EC  00AA               	movwf	??___fladd+2
  4501     05ED  1C03               	skipc
  4502     05EE  03AB               	decf	??___fladd+3,f
  4503     05EF  082B               	movf	??___fladd+3,w
  4504     05F0  3A80               	xorlw	128
  4505     05F1  00FF               	movwf	btemp1
  4506     05F2  3080               	movlw	128
  4507     05F3  027F               	subwf	btemp1,w
  4508     05F4  1D03               	skipz
  4509     05F5  2DF8               	goto	u2425
  4510     05F6  301A               	movlw	26
  4511     05F7  022A               	subwf	??___fladd+2,w
  4512     05F8                     u2425:
  4513     05F8  1C03               	skipc
  4514     05F9  2DFB               	goto	u2421
  4515     05FA  2DFC               	goto	u2420
  4516     05FB                     u2421:
  4517     05FB  2E31               	goto	l2055
  4518     05FC                     u2420:
  4519     05FC                     l2041:
  4520     05FC  1283               	bcf	3,5	;RP0=0, select bank0
  4521     05FD  1303               	bcf	3,6	;RP1=0, select bank0
  4522     05FE  0823               	movf	___fladd@b+3,w
  4523     05FF  0422               	iorwf	___fladd@b+2,w
  4524     0600  0421               	iorwf	___fladd@b+1,w
  4525     0601  0420               	iorwf	___fladd@b,w
  4526     0602  1D03               	skipz
  4527     0603  2E05               	goto	u2431
  4528     0604  2E07               	goto	u2430
  4529     0605                     u2431:
  4530     0605  3001               	movlw	1
  4531     0606  2E08               	goto	u2440
  4532     0607                     u2430:
  4533     0607  3000               	movlw	0
  4534     0608                     u2440:
  4535     0608  00B3               	movwf	___fladd@grs
  4536     0609  3000               	movlw	0
  4537     060A  00A3               	movwf	___fladd@b+3
  4538     060B  3000               	movlw	0
  4539     060C  00A2               	movwf	___fladd@b+2
  4540     060D  3000               	movlw	0
  4541     060E  00A1               	movwf	___fladd@b+1
  4542     060F  3000               	movlw	0
  4543     0610  00A0               	movwf	___fladd@b
  4544     0611  0831               	movf	___fladd@aexp,w
  4545     0612  00B2               	movwf	___fladd@bexp
  4546     0613  2E39               	goto	l656
  4547     0614                     l658:
  4548     0614  1C33               	btfss	___fladd@grs,0
  4549     0615  2E17               	goto	u2451
  4550     0616  2E18               	goto	u2450
  4551     0617                     u2451:
  4552     0617  2E1F               	goto	l2045
  4553     0618                     u2450:
  4554     0618                     l2043:
  4555     0618  0833               	movf	___fladd@grs,w
  4556     0619  00A8               	movwf	??___fladd
  4557     061A  1003               	clrc
  4558     061B  0C28               	rrf	??___fladd,w
  4559     061C  3801               	iorlw	1
  4560     061D  00B3               	movwf	___fladd@grs
  4561     061E  2E21               	goto	l2047
  4562     061F                     l2045:
  4563     061F  1003               	clrc
  4564     0620  0CB3               	rrf	___fladd@grs,f
  4565     0621                     l2047:
  4566     0621  1C20               	btfss	___fladd@b,0
  4567     0622  2E24               	goto	u2461
  4568     0623  2E25               	goto	u2460
  4569     0624                     u2461:
  4570     0624  2E26               	goto	l2051
  4571     0625                     u2460:
  4572     0625                     l2049:
  4573     0625  17B3               	bsf	___fladd@grs,7
  4574     0626                     l2051:
  4575     0626  3001               	movlw	1
  4576     0627  00A8               	movwf	??___fladd
  4577     0628                     u2475:
  4578     0628  0D23               	rlf	___fladd@b+3,w
  4579     0629  0CA3               	rrf	___fladd@b+3,f
  4580     062A  0CA2               	rrf	___fladd@b+2,f
  4581     062B  0CA1               	rrf	___fladd@b+1,f
  4582     062C  0CA0               	rrf	___fladd@b,f
  4583     062D  0BA8               	decfsz	??___fladd& (0+127),f
  4584     062E  2E28               	goto	u2475
  4585     062F                     l2053:
  4586     062F  3001               	movlw	1
  4587     0630  07B2               	addwf	___fladd@bexp,f
  4588     0631                     l2055:
  4589     0631  1283               	bcf	3,5	;RP0=0, select bank0
  4590     0632  1303               	bcf	3,6	;RP1=0, select bank0
  4591     0633  0831               	movf	___fladd@aexp,w
  4592     0634  0232               	subwf	___fladd@bexp,w
  4593     0635  1C03               	skipc
  4594     0636  2E38               	goto	u2481
  4595     0637  2E39               	goto	u2480
  4596     0638                     u2481:
  4597     0638  2E14               	goto	l658
  4598     0639                     u2480:
  4599     0639                     l656:
  4600     0639  1B30               	btfsc	___fladd@signs,6
  4601     063A  2E3C               	goto	u2491
  4602     063B  2E3D               	goto	u2490
  4603     063C                     u2491:
  4604     063C  2E84               	goto	l2081
  4605     063D                     u2490:
  4606     063D                     l2057:
  4607     063D  0832               	movf	___fladd@bexp,w
  4608     063E  1D03               	btfss	3,2
  4609     063F  2E41               	goto	u2501
  4610     0640  2E42               	goto	u2500
  4611     0641                     u2501:
  4612     0641  2E4B               	goto	l2063
  4613     0642                     u2500:
  4614     0642                     l2059:
  4615     0642  3000               	movlw	0
  4616     0643  00A3               	movwf	?___fladd+3
  4617     0644  3000               	movlw	0
  4618     0645  00A2               	movwf	?___fladd+2
  4619     0646  3000               	movlw	0
  4620     0647  00A1               	movwf	?___fladd+1
  4621     0648  3000               	movlw	0
  4622     0649  00A0               	movwf	?___fladd
  4623     064A  2FAC               	goto	l665
  4624     064B                     l2063:
  4625     064B  0824               	movf	___fladd@a,w
  4626     064C  07A0               	addwf	___fladd@b,f
  4627     064D  0825               	movf	___fladd@a+1,w
  4628     064E  1103               	clrz
  4629     064F  1803               	skipnc
  4630     0650  3E01               	addlw	1
  4631     0651  1903               	skipnz
  4632     0652  2E54               	goto	u2511
  4633     0653  07A1               	addwf	___fladd@b+1,f
  4634     0654                     u2511:
  4635     0654  0826               	movf	___fladd@a+2,w
  4636     0655  1103               	clrz
  4637     0656  1803               	skipnc
  4638     0657  3E01               	addlw	1
  4639     0658  1903               	skipnz
  4640     0659  2E5B               	goto	u2512
  4641     065A  07A2               	addwf	___fladd@b+2,f
  4642     065B                     u2512:
  4643     065B  0827               	movf	___fladd@a+3,w
  4644     065C  1103               	clrz
  4645     065D  1803               	skipnc
  4646     065E  3E01               	addlw	1
  4647     065F  1903               	skipnz
  4648     0660  2E62               	goto	u2513
  4649     0661  07A3               	addwf	___fladd@b+3,f
  4650     0662                     u2513:
  4651     0662                     l2065:
  4652     0662  1C23               	btfss	___fladd@b+3,0
  4653     0663  2E65               	goto	u2521
  4654     0664  2E66               	goto	u2520
  4655     0665                     u2521:
  4656     0665  2F38               	goto	l2117
  4657     0666                     u2520:
  4658     0666                     l2067:
  4659     0666  1C33               	btfss	___fladd@grs,0
  4660     0667  2E69               	goto	u2531
  4661     0668  2E6A               	goto	u2530
  4662     0669                     u2531:
  4663     0669  2E71               	goto	l2071
  4664     066A                     u2530:
  4665     066A                     l2069:
  4666     066A  0833               	movf	___fladd@grs,w
  4667     066B  00A8               	movwf	??___fladd
  4668     066C  1003               	clrc
  4669     066D  0C28               	rrf	??___fladd,w
  4670     066E  3801               	iorlw	1
  4671     066F  00B3               	movwf	___fladd@grs
  4672     0670  2E73               	goto	l2073
  4673     0671                     l2071:
  4674     0671  1003               	clrc
  4675     0672  0CB3               	rrf	___fladd@grs,f
  4676     0673                     l2073:
  4677     0673  1C20               	btfss	___fladd@b,0
  4678     0674  2E76               	goto	u2541
  4679     0675  2E77               	goto	u2540
  4680     0676                     u2541:
  4681     0676  2E78               	goto	l2077
  4682     0677                     u2540:
  4683     0677                     l2075:
  4684     0677  17B3               	bsf	___fladd@grs,7
  4685     0678                     l2077:
  4686     0678  3001               	movlw	1
  4687     0679  00A8               	movwf	??___fladd
  4688     067A                     u2555:
  4689     067A  0D23               	rlf	___fladd@b+3,w
  4690     067B  0CA3               	rrf	___fladd@b+3,f
  4691     067C  0CA2               	rrf	___fladd@b+2,f
  4692     067D  0CA1               	rrf	___fladd@b+1,f
  4693     067E  0CA0               	rrf	___fladd@b,f
  4694     067F  0BA8               	decfsz	??___fladd& (0+127),f
  4695     0680  2E7A               	goto	u2555
  4696     0681                     l2079:
  4697     0681  3001               	movlw	1
  4698     0682  07B2               	addwf	___fladd@bexp,f
  4699     0683  2F38               	goto	l2117
  4700     0684                     l2081:
  4701     0684  0823               	movf	___fladd@b+3,w
  4702     0685  3A80               	xorlw	128
  4703     0686  00FF               	movwf	btemp1
  4704     0687  0827               	movf	___fladd@a+3,w
  4705     0688  3A80               	xorlw	128
  4706     0689  027F               	subwf	btemp1,w
  4707     068A  1D03               	skipz
  4708     068B  2E96               	goto	u2563
  4709     068C  0826               	movf	___fladd@a+2,w
  4710     068D  0222               	subwf	___fladd@b+2,w
  4711     068E  1D03               	skipz
  4712     068F  2E96               	goto	u2563
  4713     0690  0825               	movf	___fladd@a+1,w
  4714     0691  0221               	subwf	___fladd@b+1,w
  4715     0692  1D03               	skipz
  4716     0693  2E96               	goto	u2563
  4717     0694  0824               	movf	___fladd@a,w
  4718     0695  0220               	subwf	___fladd@b,w
  4719     0696                     u2563:
  4720     0696  1803               	skipnc
  4721     0697  2E99               	goto	u2561
  4722     0698  2E9A               	goto	u2560
  4723     0699                     u2561:
  4724     0699  2EF1               	goto	l2093
  4725     069A                     u2560:
  4726     069A                     l2083:
  4727     069A  30FF               	movlw	255
  4728     069B  00A8               	movwf	??___fladd
  4729     069C  30FF               	movlw	255
  4730     069D  00A9               	movwf	??___fladd+1
  4731     069E  30FF               	movlw	255
  4732     069F  00AA               	movwf	??___fladd+2
  4733     06A0  30FF               	movlw	255
  4734     06A1  00AB               	movwf	??___fladd+3
  4735     06A2  0824               	movf	___fladd@a,w
  4736     06A3  00AC               	movwf	??___fladd+4
  4737     06A4  0825               	movf	___fladd@a+1,w
  4738     06A5  00AD               	movwf	??___fladd+5
  4739     06A6  0826               	movf	___fladd@a+2,w
  4740     06A7  00AE               	movwf	??___fladd+6
  4741     06A8  0827               	movf	___fladd@a+3,w
  4742     06A9  00AF               	movwf	??___fladd+7
  4743     06AA  0820               	movf	___fladd@b,w
  4744     06AB  02AC               	subwf	??___fladd+4,f
  4745     06AC  0821               	movf	___fladd@b+1,w
  4746     06AD  1C03               	skipc
  4747     06AE  0F21               	incfsz	___fladd@b+1,w
  4748     06AF  2EB1               	goto	u2571
  4749     06B0  2EB2               	goto	u2572
  4750     06B1                     u2571:
  4751     06B1  02AD               	subwf	??___fladd+5,f
  4752     06B2                     u2572:
  4753     06B2  0822               	movf	___fladd@b+2,w
  4754     06B3  1C03               	skipc
  4755     06B4  0F22               	incfsz	___fladd@b+2,w
  4756     06B5  2EB7               	goto	u2573
  4757     06B6  2EB8               	goto	u2574
  4758     06B7                     u2573:
  4759     06B7  02AE               	subwf	??___fladd+6,f
  4760     06B8                     u2574:
  4761     06B8  0823               	movf	___fladd@b+3,w
  4762     06B9  1C03               	skipc
  4763     06BA  0F23               	incfsz	___fladd@b+3,w
  4764     06BB  2EBD               	goto	u2575
  4765     06BC  2EBE               	goto	u2576
  4766     06BD                     u2575:
  4767     06BD  02AF               	subwf	??___fladd+7,f
  4768     06BE                     u2576:
  4769     06BE  082C               	movf	??___fladd+4,w
  4770     06BF  07A8               	addwf	??___fladd,f
  4771     06C0  082D               	movf	??___fladd+5,w
  4772     06C1  1803               	skipnc
  4773     06C2  0F2D               	incfsz	??___fladd+5,w
  4774     06C3  2EC5               	goto	u2580
  4775     06C4  2EC6               	goto	u2581
  4776     06C5                     u2580:
  4777     06C5  07A9               	addwf	??___fladd+1,f
  4778     06C6                     u2581:
  4779     06C6  082E               	movf	??___fladd+6,w
  4780     06C7  1803               	skipnc
  4781     06C8  0F2E               	incfsz	??___fladd+6,w
  4782     06C9  2ECB               	goto	u2582
  4783     06CA  2ECC               	goto	u2583
  4784     06CB                     u2582:
  4785     06CB  07AA               	addwf	??___fladd+2,f
  4786     06CC                     u2583:
  4787     06CC  082F               	movf	??___fladd+7,w
  4788     06CD  1803               	skipnc
  4789     06CE  0A2F               	incf	??___fladd+7,w
  4790     06CF  07AB               	addwf	??___fladd+3,f
  4791     06D0  082B               	movf	??___fladd+3,w
  4792     06D1  00A3               	movwf	___fladd@b+3
  4793     06D2  082A               	movf	??___fladd+2,w
  4794     06D3  00A2               	movwf	___fladd@b+2
  4795     06D4  0829               	movf	??___fladd+1,w
  4796     06D5  00A1               	movwf	___fladd@b+1
  4797     06D6  0828               	movf	??___fladd,w
  4798     06D7  00A0               	movwf	___fladd@b
  4799     06D8                     l2085:
  4800     06D8  3080               	movlw	128
  4801     06D9  06B0               	xorwf	___fladd@signs,f
  4802     06DA                     l2087:
  4803     06DA  0333               	decf	___fladd@grs,w
  4804     06DB  3AFF               	xorlw	255
  4805     06DC  00B3               	movwf	___fladd@grs
  4806     06DD                     l2089:
  4807     06DD  0833               	movf	___fladd@grs,w
  4808     06DE  1D03               	btfss	3,2
  4809     06DF  2EE1               	goto	u2591
  4810     06E0  2EE2               	goto	u2590
  4811     06E1                     u2591:
  4812     06E1  2EFF               	goto	l673
  4813     06E2                     u2590:
  4814     06E2                     l2091:
  4815     06E2  3001               	movlw	1
  4816     06E3  07A0               	addwf	___fladd@b,f
  4817     06E4  3000               	movlw	0
  4818     06E5  1803               	skipnc
  4819     06E6  3001               	movlw	1
  4820     06E7  07A1               	addwf	___fladd@b+1,f
  4821     06E8  3000               	movlw	0
  4822     06E9  1803               	skipnc
  4823     06EA  3001               	movlw	1
  4824     06EB  07A2               	addwf	___fladd@b+2,f
  4825     06EC  3000               	movlw	0
  4826     06ED  1803               	skipnc
  4827     06EE  3001               	movlw	1
  4828     06EF  07A3               	addwf	___fladd@b+3,f
  4829     06F0  2EFF               	goto	l673
  4830     06F1                     l2093:
  4831     06F1  0824               	movf	___fladd@a,w
  4832     06F2  02A0               	subwf	___fladd@b,f
  4833     06F3  0825               	movf	___fladd@a+1,w
  4834     06F4  1C03               	skipc
  4835     06F5  0F25               	incfsz	___fladd@a+1,w
  4836     06F6  02A1               	subwf	___fladd@b+1,f
  4837     06F7  0826               	movf	___fladd@a+2,w
  4838     06F8  1C03               	skipc
  4839     06F9  0F26               	incfsz	___fladd@a+2,w
  4840     06FA  02A2               	subwf	___fladd@b+2,f
  4841     06FB  0827               	movf	___fladd@a+3,w
  4842     06FC  1C03               	skipc
  4843     06FD  0F27               	incfsz	___fladd@a+3,w
  4844     06FE  02A3               	subwf	___fladd@b+3,f
  4845     06FF                     l673:
  4846     06FF  0823               	movf	___fladd@b+3,w
  4847     0700  0422               	iorwf	___fladd@b+2,w
  4848     0701  0421               	iorwf	___fladd@b+1,w
  4849     0702  0420               	iorwf	___fladd@b,w
  4850     0703  1D03               	skipz
  4851     0704  2F06               	goto	u2601
  4852     0705  2F07               	goto	u2600
  4853     0706                     u2601:
  4854     0706  2F34               	goto	l2115
  4855     0707                     u2600:
  4856     0707                     l2095:
  4857     0707  0833               	movf	___fladd@grs,w
  4858     0708  1D03               	btfss	3,2
  4859     0709  2F0B               	goto	u2611
  4860     070A  2F0C               	goto	u2610
  4861     070B                     u2611:
  4862     070B  2F34               	goto	l2115
  4863     070C                     u2610:
  4864     070C                     l2097:
  4865     070C  3000               	movlw	0
  4866     070D  00A3               	movwf	?___fladd+3
  4867     070E  3000               	movlw	0
  4868     070F  00A2               	movwf	?___fladd+2
  4869     0710  3000               	movlw	0
  4870     0711  00A1               	movwf	?___fladd+1
  4871     0712  3000               	movlw	0
  4872     0713  00A0               	movwf	?___fladd
  4873     0714  2FAC               	goto	l665
  4874     0715                     l2101:
  4875     0715  3001               	movlw	1
  4876     0716  00A8               	movwf	??___fladd
  4877     0717                     u2625:
  4878     0717  1003               	clrc
  4879     0718  0DA0               	rlf	___fladd@b,f
  4880     0719  0DA1               	rlf	___fladd@b+1,f
  4881     071A  0DA2               	rlf	___fladd@b+2,f
  4882     071B  0DA3               	rlf	___fladd@b+3,f
  4883     071C  0BA8               	decfsz	??___fladd,f
  4884     071D  2F17               	goto	u2625
  4885     071E                     l2103:
  4886     071E  1FB3               	btfss	___fladd@grs,7
  4887     071F  2F21               	goto	u2631
  4888     0720  2F22               	goto	u2630
  4889     0721                     u2631:
  4890     0721  2F23               	goto	l677
  4891     0722                     u2630:
  4892     0722                     l2105:
  4893     0722  1420               	bsf	___fladd@b,0
  4894     0723                     l677:
  4895     0723  1C33               	btfss	___fladd@grs,0
  4896     0724  2F26               	goto	u2641
  4897     0725  2F27               	goto	u2640
  4898     0726                     u2641:
  4899     0726  2F2B               	goto	l2109
  4900     0727                     u2640:
  4901     0727                     l2107:
  4902     0727  1403               	setc
  4903     0728  0D33               	rlf	___fladd@grs,w
  4904     0729  00B3               	movwf	___fladd@grs
  4905     072A  2F2D               	goto	l2111
  4906     072B                     l2109:
  4907     072B  1003               	clrc
  4908     072C  0DB3               	rlf	___fladd@grs,f
  4909     072D                     l2111:
  4910     072D  0832               	movf	___fladd@bexp,w
  4911     072E  1903               	btfsc	3,2
  4912     072F  2F31               	goto	u2651
  4913     0730  2F32               	goto	u2650
  4914     0731                     u2651:
  4915     0731  2F34               	goto	l2115
  4916     0732                     u2650:
  4917     0732                     l2113:
  4918     0732  3001               	movlw	1
  4919     0733  02B2               	subwf	___fladd@bexp,f
  4920     0734                     l2115:
  4921     0734  1FA2               	btfss	___fladd@b+2,7
  4922     0735  2F37               	goto	u2661
  4923     0736  2F38               	goto	u2660
  4924     0737                     u2661:
  4925     0737  2F15               	goto	l2101
  4926     0738                     u2660:
  4927     0738                     l2117:
  4928     0738  01B1               	clrf	___fladd@aexp
  4929     0739                     l2119:
  4930     0739  1FB3               	btfss	___fladd@grs,7
  4931     073A  2F3C               	goto	u2671
  4932     073B  2F3D               	goto	u2670
  4933     073C                     u2671:
  4934     073C  2F4B               	goto	l2127
  4935     073D                     u2670:
  4936     073D                     l2121:
  4937     073D  0833               	movf	___fladd@grs,w
  4938     073E  397F               	andlw	127
  4939     073F  1903               	btfsc	3,2
  4940     0740  2F42               	goto	u2681
  4941     0741  2F43               	goto	u2680
  4942     0742                     u2681:
  4943     0742  2F46               	goto	l683
  4944     0743                     u2680:
  4945     0743                     l2123:
  4946     0743  3001               	movlw	1
  4947     0744  00B1               	movwf	___fladd@aexp
  4948     0745  2F4B               	goto	l2127
  4949     0746                     l683:
  4950     0746  1C20               	btfss	___fladd@b,0
  4951     0747  2F49               	goto	u2691
  4952     0748  2F4A               	goto	u2690
  4953     0749                     u2691:
  4954     0749  2F4B               	goto	l2127
  4955     074A                     u2690:
  4956     074A  2F43               	goto	l2123
  4957     074B                     l2127:
  4958     074B  0831               	movf	___fladd@aexp,w
  4959     074C  1903               	btfsc	3,2
  4960     074D  2F4F               	goto	u2701
  4961     074E  2F50               	goto	u2700
  4962     074F                     u2701:
  4963     074F  2F82               	goto	l686
  4964     0750                     u2700:
  4965     0750                     l2129:
  4966     0750  3001               	movlw	1
  4967     0751  07A0               	addwf	___fladd@b,f
  4968     0752  3000               	movlw	0
  4969     0753  1803               	skipnc
  4970     0754  3001               	movlw	1
  4971     0755  07A1               	addwf	___fladd@b+1,f
  4972     0756  3000               	movlw	0
  4973     0757  1803               	skipnc
  4974     0758  3001               	movlw	1
  4975     0759  07A2               	addwf	___fladd@b+2,f
  4976     075A  3000               	movlw	0
  4977     075B  1803               	skipnc
  4978     075C  3001               	movlw	1
  4979     075D  07A3               	addwf	___fladd@b+3,f
  4980     075E                     l2131:
  4981     075E  1C23               	btfss	___fladd@b+3,0
  4982     075F  2F61               	goto	u2711
  4983     0760  2F62               	goto	u2710
  4984     0761                     u2711:
  4985     0761  2F82               	goto	l686
  4986     0762                     u2710:
  4987     0762                     l2133:
  4988     0762  0820               	movf	___fladd@b,w
  4989     0763  00A8               	movwf	??___fladd
  4990     0764  0821               	movf	___fladd@b+1,w
  4991     0765  00A9               	movwf	??___fladd+1
  4992     0766  0822               	movf	___fladd@b+2,w
  4993     0767  00AA               	movwf	??___fladd+2
  4994     0768  0823               	movf	___fladd@b+3,w
  4995     0769  00AB               	movwf	??___fladd+3
  4996     076A  3001               	movlw	1
  4997     076B  00AC               	movwf	??___fladd+4
  4998     076C                     u2725:
  4999     076C  0D2B               	rlf	??___fladd+3,w
  5000     076D  0CAB               	rrf	??___fladd+3,f
  5001     076E  0CAA               	rrf	??___fladd+2,f
  5002     076F  0CA9               	rrf	??___fladd+1,f
  5003     0770  0CA8               	rrf	??___fladd,f
  5004     0771                     u2720:
  5005     0771  0BAC               	decfsz	??___fladd+4,f
  5006     0772  2F6C               	goto	u2725
  5007     0773  082B               	movf	??___fladd+3,w
  5008     0774  00A3               	movwf	___fladd@b+3
  5009     0775  082A               	movf	??___fladd+2,w
  5010     0776  00A2               	movwf	___fladd@b+2
  5011     0777  0829               	movf	??___fladd+1,w
  5012     0778  00A1               	movwf	___fladd@b+1
  5013     0779  0828               	movf	??___fladd,w
  5014     077A  00A0               	movwf	___fladd@b
  5015     077B  0A32               	incf	___fladd@bexp,w
  5016     077C  1903               	btfsc	3,2
  5017     077D  2F7F               	goto	u2731
  5018     077E  2F80               	goto	u2730
  5019     077F                     u2731:
  5020     077F  2F82               	goto	l686
  5021     0780                     u2730:
  5022     0780                     l2135:
  5023     0780  3001               	movlw	1
  5024     0781  07B2               	addwf	___fladd@bexp,f
  5025     0782                     l686:
  5026     0782  0A32               	incf	___fladd@bexp,w
  5027     0783  1903               	btfsc	3,2
  5028     0784  2F86               	goto	u2741
  5029     0785  2F87               	goto	u2740
  5030     0786                     u2741:
  5031     0786  2F8C               	goto	l2139
  5032     0787                     u2740:
  5033     0787                     l2137:
  5034     0787  0832               	movf	___fladd@bexp,w
  5035     0788  1D03               	btfss	3,2
  5036     0789  2F8B               	goto	u2751
  5037     078A  2F8C               	goto	u2750
  5038     078B                     u2751:
  5039     078B  2F9A               	goto	l2145
  5040     078C                     u2750:
  5041     078C                     l2139:
  5042     078C  3000               	movlw	0
  5043     078D  00A3               	movwf	___fladd@b+3
  5044     078E  3000               	movlw	0
  5045     078F  00A2               	movwf	___fladd@b+2
  5046     0790  3000               	movlw	0
  5047     0791  00A1               	movwf	___fladd@b+1
  5048     0792  3000               	movlw	0
  5049     0793  00A0               	movwf	___fladd@b
  5050     0794                     l2141:
  5051     0794  0832               	movf	___fladd@bexp,w
  5052     0795  1D03               	btfss	3,2
  5053     0796  2F98               	goto	u2761
  5054     0797  2F99               	goto	u2760
  5055     0798                     u2761:
  5056     0798  2F9A               	goto	l2145
  5057     0799                     u2760:
  5058     0799                     l2143:
  5059     0799  01B0               	clrf	___fladd@signs
  5060     079A                     l2145:
  5061     079A  1C32               	btfss	___fladd@bexp,0
  5062     079B  2F9D               	goto	u2771
  5063     079C  2F9E               	goto	u2770
  5064     079D                     u2771:
  5065     079D  2FA0               	goto	l2149
  5066     079E                     u2770:
  5067     079E                     l2147:
  5068     079E  17A2               	bsf	___fladd@b+2,7
  5069     079F  2FA2               	goto	l694
  5070     07A0                     l2149:
  5071     07A0  307F               	movlw	127
  5072     07A1  05A2               	andwf	___fladd@b+2,f
  5073     07A2                     l694:
  5074     07A2  0832               	movf	___fladd@bexp,w
  5075     07A3  00A8               	movwf	??___fladd
  5076     07A4  1003               	clrc
  5077     07A5  0C28               	rrf	??___fladd,w
  5078     07A6  00A3               	movwf	___fladd@b+3
  5079     07A7                     l2151:
  5080     07A7  1FB0               	btfss	___fladd@signs,7
  5081     07A8  2FAA               	goto	u2781
  5082     07A9  2FAB               	goto	u2780
  5083     07AA                     u2781:
  5084     07AA  2FAC               	goto	l695
  5085     07AB                     u2780:
  5086     07AB                     l2153:
  5087     07AB  17A3               	bsf	___fladd@b+3,7
  5088     07AC                     l695:
  5089     07AC                     l665:
  5090     07AC  0008               	return
  5091     07AD                     __end_of___fladd:
  5092                           
  5093                           	psect	text6
  5094     1348                     __ptext6:	
  5095 ;; *************** function ___flge *****************
  5096 ;; Defined at:
  5097 ;;		line 4 in file "C:\Program Files\Microchip\xc8\v3.10\pic\sources\c99\common\flge.c"
  5098 ;; Parameters:    Size  Location     Type
  5099 ;;  ff1             4   43[BANK1 ] unsigned char 
  5100 ;;  ff2             4   47[BANK1 ] unsigned char 
  5101 ;; Auto vars:     Size  Location     Type
  5102 ;;		None
  5103 ;; Return value:  Size  Location     Type
  5104 ;;		None               void
  5105 ;; Registers used:
  5106 ;;		wreg, status,2, status,0
  5107 ;; Tracked objects:
  5108 ;;		On entry : 0/0
  5109 ;;		On exit  : 0/0
  5110 ;;		Unchanged: 0/0
  5111 ;; Data sizes:     COMMON   BANK0   BANK1   BANK3   BANK2
  5112 ;;      Params:         0       0       8       0       0
  5113 ;;      Locals:         0       0       0       0       0
  5114 ;;      Temps:          0       0       4       0       0
  5115 ;;      Totals:         0       0      12       0       0
  5116 ;;Total ram usage:       12 bytes
  5117 ;; Hardware stack levels used: 1
  5118 ;; Hardware stack levels required when called: 2
  5119 ;; This function calls:
  5120 ;;		Nothing
  5121 ;; This function is called by:
  5122 ;;		_splitFloat
  5123 ;;		_main
  5124 ;; This function uses a non-reentrant model
  5125 ;;
  5126                           
  5127     1348                     ___flge:	
  5128                           ;psect for function ___flge
  5129                           
  5130     1348                     l2263:	
  5131                           ;incstack = 0
  5132                           ; Regs used in ___flge: [wreg+status,2+status,0]
  5133                           
  5134     1348  3000               	movlw	0
  5135     1349  1683               	bsf	3,5	;RP0=1, select bank1
  5136     134A  1303               	bcf	3,6	;RP1=0, select bank1
  5137     134B  054B               	andwf	___flge@ff1^(0+128),w
  5138     134C  00D3               	movwf	??___flge^(0+128)
  5139     134D  3000               	movlw	0
  5140     134E  054C               	andwf	(___flge@ff1+1)^(0+128),w
  5141     134F  00D4               	movwf	(??___flge^(0+128)+1)
  5142     1350  3080               	movlw	128
  5143     1351  054D               	andwf	(___flge@ff1+2)^(0+128),w
  5144     1352  00D5               	movwf	(??___flge^(0+128)+2)
  5145     1353  307F               	movlw	127
  5146     1354  054E               	andwf	(___flge@ff1+3)^(0+128),w
  5147     1355  00D6               	movwf	(??___flge^(0+128)+3)
  5148     1356  0856               	movf	(??___flge+3)^(0+128),w
  5149     1357  0455               	iorwf	(??___flge+2)^(0+128),w
  5150     1358  0454               	iorwf	(??___flge+1)^(0+128),w
  5151     1359  0453               	iorwf	??___flge^(0+128),w
  5152     135A  1D03               	skipz
  5153     135B  2B5D               	goto	u3031
  5154     135C  2B5E               	goto	u3030
  5155     135D                     u3031:
  5156     135D  2B66               	goto	l529
  5157     135E                     u3030:
  5158     135E                     l2265:
  5159     135E  3000               	movlw	0
  5160     135F  00CE               	movwf	(___flge@ff1+3)^(0+128)
  5161     1360  3000               	movlw	0
  5162     1361  00CD               	movwf	(___flge@ff1+2)^(0+128)
  5163     1362  3000               	movlw	0
  5164     1363  00CC               	movwf	(___flge@ff1+1)^(0+128)
  5165     1364  3000               	movlw	0
  5166     1365  00CB               	movwf	___flge@ff1^(0+128)
  5167     1366                     l529:
  5168     1366  3000               	movlw	0
  5169     1367  054F               	andwf	___flge@ff2^(0+128),w
  5170     1368  00D3               	movwf	??___flge^(0+128)
  5171     1369  3000               	movlw	0
  5172     136A  0550               	andwf	(___flge@ff2+1)^(0+128),w
  5173     136B  00D4               	movwf	(??___flge^(0+128)+1)
  5174     136C  3080               	movlw	128
  5175     136D  0551               	andwf	(___flge@ff2+2)^(0+128),w
  5176     136E  00D5               	movwf	(??___flge^(0+128)+2)
  5177     136F  307F               	movlw	127
  5178     1370  0552               	andwf	(___flge@ff2+3)^(0+128),w
  5179     1371  00D6               	movwf	(??___flge^(0+128)+3)
  5180     1372  0856               	movf	(??___flge+3)^(0+128),w
  5181     1373  0455               	iorwf	(??___flge+2)^(0+128),w
  5182     1374  0454               	iorwf	(??___flge+1)^(0+128),w
  5183     1375  0453               	iorwf	??___flge^(0+128),w
  5184     1376  1D03               	skipz
  5185     1377  2B79               	goto	u3041
  5186     1378  2B7A               	goto	u3040
  5187     1379                     u3041:
  5188     1379  2B82               	goto	l2269
  5189     137A                     u3040:
  5190     137A                     l2267:
  5191     137A  3000               	movlw	0
  5192     137B  00D2               	movwf	(___flge@ff2+3)^(0+128)
  5193     137C  3000               	movlw	0
  5194     137D  00D1               	movwf	(___flge@ff2+2)^(0+128)
  5195     137E  3000               	movlw	0
  5196     137F  00D0               	movwf	(___flge@ff2+1)^(0+128)
  5197     1380  3000               	movlw	0
  5198     1381  00CF               	movwf	___flge@ff2^(0+128)
  5199     1382                     l2269:
  5200     1382  1FCE               	btfss	(___flge@ff1+3)^(0+128),7
  5201     1383  2B85               	goto	u3051
  5202     1384  2B86               	goto	u3050
  5203     1385                     u3051:
  5204     1385  2BAA               	goto	l2273
  5205     1386                     u3050:
  5206     1386                     l2271:
  5207     1386  3000               	movlw	0
  5208     1387  00D3               	movwf	??___flge^(0+128)
  5209     1388  3000               	movlw	0
  5210     1389  00D4               	movwf	(??___flge^(0+128)+1)
  5211     138A  3000               	movlw	0
  5212     138B  00D5               	movwf	(??___flge^(0+128)+2)
  5213     138C  3080               	movlw	128
  5214     138D  00D6               	movwf	(??___flge^(0+128)+3)
  5215     138E  084B               	movf	___flge@ff1^(0+128),w
  5216     138F  02D3               	subwf	??___flge^(0+128),f
  5217     1390  084C               	movf	(___flge@ff1+1)^(0+128),w
  5218     1391  1C03               	skipc
  5219     1392  0F4C               	incfsz	(___flge@ff1+1)^(0+128),w
  5220     1393  2B95               	goto	u3061
  5221     1394  2B96               	goto	u3062
  5222     1395                     u3061:
  5223     1395  02D4               	subwf	(??___flge+1)^(0+128),f
  5224     1396                     u3062:
  5225     1396  084D               	movf	(___flge@ff1+2)^(0+128),w
  5226     1397  1C03               	skipc
  5227     1398  0F4D               	incfsz	(___flge@ff1+2)^(0+128),w
  5228     1399  2B9B               	goto	u3063
  5229     139A  2B9C               	goto	u3064
  5230     139B                     u3063:
  5231     139B  02D5               	subwf	(??___flge+2)^(0+128),f
  5232     139C                     u3064:
  5233     139C  084E               	movf	(___flge@ff1+3)^(0+128),w
  5234     139D  1C03               	skipc
  5235     139E  0F4E               	incfsz	(___flge@ff1+3)^(0+128),w
  5236     139F  2BA1               	goto	u3065
  5237     13A0  2BA2               	goto	u3066
  5238     13A1                     u3065:
  5239     13A1  02D6               	subwf	(??___flge+3)^(0+128),f
  5240     13A2                     u3066:
  5241     13A2  0856               	movf	(??___flge+3)^(0+128),w
  5242     13A3  00CE               	movwf	(___flge@ff1+3)^(0+128)
  5243     13A4  0855               	movf	(??___flge+2)^(0+128),w
  5244     13A5  00CD               	movwf	(___flge@ff1+2)^(0+128)
  5245     13A6  0854               	movf	(??___flge+1)^(0+128),w
  5246     13A7  00CC               	movwf	(___flge@ff1+1)^(0+128)
  5247     13A8  0853               	movf	??___flge^(0+128),w
  5248     13A9  00CB               	movwf	___flge@ff1^(0+128)
  5249     13AA                     l2273:
  5250     13AA  1FD2               	btfss	(___flge@ff2+3)^(0+128),7
  5251     13AB  2BAD               	goto	u3071
  5252     13AC  2BAE               	goto	u3070
  5253     13AD                     u3071:
  5254     13AD  2BD2               	goto	l532
  5255     13AE                     u3070:
  5256     13AE                     l2275:
  5257     13AE  3000               	movlw	0
  5258     13AF  00D3               	movwf	??___flge^(0+128)
  5259     13B0  3000               	movlw	0
  5260     13B1  00D4               	movwf	(??___flge^(0+128)+1)
  5261     13B2  3000               	movlw	0
  5262     13B3  00D5               	movwf	(??___flge^(0+128)+2)
  5263     13B4  3080               	movlw	128
  5264     13B5  00D6               	movwf	(??___flge^(0+128)+3)
  5265     13B6  084F               	movf	___flge@ff2^(0+128),w
  5266     13B7  02D3               	subwf	??___flge^(0+128),f
  5267     13B8  0850               	movf	(___flge@ff2+1)^(0+128),w
  5268     13B9  1C03               	skipc
  5269     13BA  0F50               	incfsz	(___flge@ff2+1)^(0+128),w
  5270     13BB  2BBD               	goto	u3081
  5271     13BC  2BBE               	goto	u3082
  5272     13BD                     u3081:
  5273     13BD  02D4               	subwf	(??___flge+1)^(0+128),f
  5274     13BE                     u3082:
  5275     13BE  0851               	movf	(___flge@ff2+2)^(0+128),w
  5276     13BF  1C03               	skipc
  5277     13C0  0F51               	incfsz	(___flge@ff2+2)^(0+128),w
  5278     13C1  2BC3               	goto	u3083
  5279     13C2  2BC4               	goto	u3084
  5280     13C3                     u3083:
  5281     13C3  02D5               	subwf	(??___flge+2)^(0+128),f
  5282     13C4                     u3084:
  5283     13C4  0852               	movf	(___flge@ff2+3)^(0+128),w
  5284     13C5  1C03               	skipc
  5285     13C6  0F52               	incfsz	(___flge@ff2+3)^(0+128),w
  5286     13C7  2BC9               	goto	u3085
  5287     13C8  2BCA               	goto	u3086
  5288     13C9                     u3085:
  5289     13C9  02D6               	subwf	(??___flge+3)^(0+128),f
  5290     13CA                     u3086:
  5291     13CA  0856               	movf	(??___flge+3)^(0+128),w
  5292     13CB  00D2               	movwf	(___flge@ff2+3)^(0+128)
  5293     13CC  0855               	movf	(??___flge+2)^(0+128),w
  5294     13CD  00D1               	movwf	(___flge@ff2+2)^(0+128)
  5295     13CE  0854               	movf	(??___flge+1)^(0+128),w
  5296     13CF  00D0               	movwf	(___flge@ff2+1)^(0+128)
  5297     13D0  0853               	movf	??___flge^(0+128),w
  5298     13D1  00CF               	movwf	___flge@ff2^(0+128)
  5299     13D2                     l532:
  5300     13D2  3080               	movlw	128
  5301     13D3  06CE               	xorwf	(___flge@ff1+3)^(0+128),f
  5302     13D4  3080               	movlw	128
  5303     13D5  06D2               	xorwf	(___flge@ff2+3)^(0+128),f
  5304     13D6  0852               	movf	(___flge@ff2+3)^(0+128),w
  5305     13D7  024E               	subwf	(___flge@ff1+3)^(0+128),w
  5306     13D8  1D03               	skipz
  5307     13D9  2BE4               	goto	u3095
  5308     13DA  0851               	movf	(___flge@ff2+2)^(0+128),w
  5309     13DB  024D               	subwf	(___flge@ff1+2)^(0+128),w
  5310     13DC  1D03               	skipz
  5311     13DD  2BE4               	goto	u3095
  5312     13DE  0850               	movf	(___flge@ff2+1)^(0+128),w
  5313     13DF  024C               	subwf	(___flge@ff1+1)^(0+128),w
  5314     13E0  1D03               	skipz
  5315     13E1  2BE4               	goto	u3095
  5316     13E2  084F               	movf	___flge@ff2^(0+128),w
  5317     13E3  024B               	subwf	___flge@ff1^(0+128),w
  5318     13E4                     u3095:
  5319     13E4  1803               	skipnc
  5320     13E5  2BE7               	goto	u3091
  5321     13E6  2BE8               	goto	u3090
  5322     13E7                     u3091:
  5323     13E7  2BEA               	goto	l2279
  5324     13E8                     u3090:
  5325     13E8                     l2277:
  5326     13E8  1003               	clrc
  5327     13E9  2BEB               	goto	l537
  5328     13EA                     l2279:
  5329     13EA  1403               	setc
  5330     13EB                     l537:
  5331     13EB  0008               	return
  5332     13EC                     __end_of___flge:
  5333                           
  5334                           	psect	text7
  5335     1264                     __ptext7:	
  5336 ;; *************** function ___awmod *****************
  5337 ;; Defined at:
  5338 ;;		line 5 in file "C:\Program Files\Microchip\xc8\v3.10\pic\sources\c99\common\awmod.c"
  5339 ;; Parameters:    Size  Location     Type
  5340 ;;  divisor         2    0[BANK1 ] int 
  5341 ;;  dividend        2    2[BANK1 ] int 
  5342 ;; Auto vars:     Size  Location     Type
  5343 ;;  sign            1   79[BANK0 ] unsigned char 
  5344 ;;  counter         1   78[BANK0 ] unsigned char 
  5345 ;; Return value:  Size  Location     Type
  5346 ;;                  2    0[BANK1 ] int 
  5347 ;; Registers used:
  5348 ;;		wreg, status,2, status,0
  5349 ;; Tracked objects:
  5350 ;;		On entry : 0/0
  5351 ;;		On exit  : 0/0
  5352 ;;		Unchanged: 0/0
  5353 ;; Data sizes:     COMMON   BANK0   BANK1   BANK3   BANK2
  5354 ;;      Params:         0       0       4       0       0
  5355 ;;      Locals:         0       2       0       0       0
  5356 ;;      Temps:          0       0       0       0       0
  5357 ;;      Totals:         0       2       4       0       0
  5358 ;;Total ram usage:        6 bytes
  5359 ;; Hardware stack levels used: 1
  5360 ;; Hardware stack levels required when called: 2
  5361 ;; This function calls:
  5362 ;;		Nothing
  5363 ;; This function is called by:
  5364 ;;		_splitFloat
  5365 ;;		_splitDigits
  5366 ;; This function uses a non-reentrant model
  5367 ;;
  5368                           
  5369     1264                     ___awmod:	
  5370                           ;psect for function ___awmod
  5371                           
  5372     1264                     l2225:	
  5373                           ;incstack = 0
  5374                           ; Regs used in ___awmod: [wreg+status,2+status,0]
  5375                           
  5376     1264  1283               	bcf	3,5	;RP0=0, select bank0
  5377     1265  1303               	bcf	3,6	;RP1=0, select bank0
  5378     1266  01EF               	clrf	___awmod@sign
  5379     1267                     l2227:
  5380     1267  1683               	bsf	3,5	;RP0=1, select bank1
  5381     1268  1303               	bcf	3,6	;RP1=0, select bank1
  5382     1269  1FA3               	btfss	(___awmod@dividend+1)^(0+128),7
  5383     126A  2A6C               	goto	u2941
  5384     126B  2A6D               	goto	u2940
  5385     126C                     u2941:
  5386     126C  2A76               	goto	l2233
  5387     126D                     u2940:
  5388     126D                     l2229:
  5389     126D  09A2               	comf	___awmod@dividend^(0+128),f
  5390     126E  09A3               	comf	(___awmod@dividend+1)^(0+128),f
  5391     126F  0AA2               	incf	___awmod@dividend^(0+128),f
  5392     1270  1903               	skipnz
  5393     1271  0AA3               	incf	(___awmod@dividend+1)^(0+128),f
  5394     1272                     l2231:
  5395     1272  3001               	movlw	1
  5396     1273  1283               	bcf	3,5	;RP0=0, select bank0
  5397     1274  1303               	bcf	3,6	;RP1=0, select bank0
  5398     1275  00EF               	movwf	___awmod@sign
  5399     1276                     l2233:
  5400     1276  1683               	bsf	3,5	;RP0=1, select bank1
  5401     1277  1303               	bcf	3,6	;RP1=0, select bank1
  5402     1278  1FA1               	btfss	(___awmod@divisor+1)^(0+128),7
  5403     1279  2A7B               	goto	u2951
  5404     127A  2A7C               	goto	u2950
  5405     127B                     u2951:
  5406     127B  2A81               	goto	l2237
  5407     127C                     u2950:
  5408     127C                     l2235:
  5409     127C  09A0               	comf	___awmod@divisor^(0+128),f
  5410     127D  09A1               	comf	(___awmod@divisor+1)^(0+128),f
  5411     127E  0AA0               	incf	___awmod@divisor^(0+128),f
  5412     127F  1903               	skipnz
  5413     1280  0AA1               	incf	(___awmod@divisor+1)^(0+128),f
  5414     1281                     l2237:
  5415     1281  0820               	movf	___awmod@divisor^(0+128),w
  5416     1282  0421               	iorwf	(___awmod@divisor+1)^(0+128),w
  5417     1283  1903               	btfsc	3,2
  5418     1284  2A86               	goto	u2961
  5419     1285  2A87               	goto	u2960
  5420     1286                     u2961:
  5421     1286  2ABE               	goto	l2255
  5422     1287                     u2960:
  5423     1287                     l2239:
  5424     1287  3001               	movlw	1
  5425     1288  1283               	bcf	3,5	;RP0=0, select bank0
  5426     1289  1303               	bcf	3,6	;RP1=0, select bank0
  5427     128A  00EE               	movwf	___awmod@counter
  5428     128B  2A97               	goto	l2245
  5429     128C                     l2241:
  5430     128C  3001               	movlw	1
  5431     128D                     u2975:
  5432     128D  1003               	clrc
  5433     128E  0DA0               	rlf	___awmod@divisor^(0+128),f
  5434     128F  0DA1               	rlf	(___awmod@divisor+1)^(0+128),f
  5435     1290  3EFF               	addlw	-1
  5436     1291  1D03               	skipz
  5437     1292  2A8D               	goto	u2975
  5438     1293                     l2243:
  5439     1293  3001               	movlw	1
  5440     1294  1283               	bcf	3,5	;RP0=0, select bank0
  5441     1295  1303               	bcf	3,6	;RP1=0, select bank0
  5442     1296  07EE               	addwf	___awmod@counter,f
  5443     1297                     l2245:
  5444     1297  1683               	bsf	3,5	;RP0=1, select bank1
  5445     1298  1303               	bcf	3,6	;RP1=0, select bank1
  5446     1299  1FA1               	btfss	(___awmod@divisor+1)^(0+128),7
  5447     129A  2A9C               	goto	u2981
  5448     129B  2A9D               	goto	u2980
  5449     129C                     u2981:
  5450     129C  2A8C               	goto	l2241
  5451     129D                     u2980:
  5452     129D                     l2247:
  5453     129D  1683               	bsf	3,5	;RP0=1, select bank1
  5454     129E  1303               	bcf	3,6	;RP1=0, select bank1
  5455     129F  0821               	movf	(___awmod@divisor+1)^(0+128),w
  5456     12A0  0223               	subwf	(___awmod@dividend+1)^(0+128),w
  5457     12A1  1D03               	skipz
  5458     12A2  2AA5               	goto	u2995
  5459     12A3  0820               	movf	___awmod@divisor^(0+128),w
  5460     12A4  0222               	subwf	___awmod@dividend^(0+128),w
  5461     12A5                     u2995:
  5462     12A5  1C03               	skipc
  5463     12A6  2AA8               	goto	u2991
  5464     12A7  2AA9               	goto	u2990
  5465     12A8                     u2991:
  5466     12A8  2AAF               	goto	l2251
  5467     12A9                     u2990:
  5468     12A9                     l2249:
  5469     12A9  0820               	movf	___awmod@divisor^(0+128),w
  5470     12AA  02A2               	subwf	___awmod@dividend^(0+128),f
  5471     12AB  0821               	movf	(___awmod@divisor+1)^(0+128),w
  5472     12AC  1C03               	skipc
  5473     12AD  03A3               	decf	(___awmod@dividend+1)^(0+128),f
  5474     12AE  02A3               	subwf	(___awmod@dividend+1)^(0+128),f
  5475     12AF                     l2251:
  5476     12AF  3001               	movlw	1
  5477     12B0                     u3005:
  5478     12B0  1003               	clrc
  5479     12B1  0CA1               	rrf	(___awmod@divisor+1)^(0+128),f
  5480     12B2  0CA0               	rrf	___awmod@divisor^(0+128),f
  5481     12B3  3EFF               	addlw	-1
  5482     12B4  1D03               	skipz
  5483     12B5  2AB0               	goto	u3005
  5484     12B6                     l2253:
  5485     12B6  3001               	movlw	1
  5486     12B7  1283               	bcf	3,5	;RP0=0, select bank0
  5487     12B8  1303               	bcf	3,6	;RP1=0, select bank0
  5488     12B9  02EE               	subwf	___awmod@counter,f
  5489     12BA  1D03               	btfss	3,2
  5490     12BB  2ABD               	goto	u3011
  5491     12BC  2ABE               	goto	u3010
  5492     12BD                     u3011:
  5493     12BD  2A9D               	goto	l2247
  5494     12BE                     u3010:
  5495     12BE                     l2255:
  5496     12BE  1283               	bcf	3,5	;RP0=0, select bank0
  5497     12BF  086F               	movf	___awmod@sign,w
  5498     12C0  1903               	btfsc	3,2
  5499     12C1  2AC3               	goto	u3021
  5500     12C2  2AC4               	goto	u3020
  5501     12C3                     u3021:
  5502     12C3  2ACB               	goto	l2259
  5503     12C4                     u3020:
  5504     12C4                     l2257:
  5505     12C4  1683               	bsf	3,5	;RP0=1, select bank1
  5506     12C5  1303               	bcf	3,6	;RP1=0, select bank1
  5507     12C6  09A2               	comf	___awmod@dividend^(0+128),f
  5508     12C7  09A3               	comf	(___awmod@dividend+1)^(0+128),f
  5509     12C8  0AA2               	incf	___awmod@dividend^(0+128),f
  5510     12C9  1903               	skipnz
  5511     12CA  0AA3               	incf	(___awmod@dividend+1)^(0+128),f
  5512     12CB                     l2259:
  5513     12CB  1683               	bsf	3,5	;RP0=1, select bank1
  5514     12CC  1303               	bcf	3,6	;RP1=0, select bank1
  5515     12CD  0823               	movf	(___awmod@dividend+1)^(0+128),w
  5516     12CE  00A1               	movwf	(?___awmod+1)^(0+128)
  5517     12CF  0822               	movf	___awmod@dividend^(0+128),w
  5518     12D0  00A0               	movwf	?___awmod^(0+128)
  5519     12D1                     l517:
  5520     12D1  0008               	return
  5521     12D2                     __end_of___awmod:
  5522                           
  5523                           	psect	text8
  5524     11FF                     __ptext8:	
  5525 ;; *************** function ___awdiv *****************
  5526 ;; Defined at:
  5527 ;;		line 5 in file "C:\Program Files\Microchip\xc8\v3.10\pic\sources\c99\common\awdiv.c"
  5528 ;; Parameters:    Size  Location     Type
  5529 ;;  divisor         2   30[BANK0 ] int 
  5530 ;;  dividend        2   32[BANK0 ] int 
  5531 ;; Auto vars:     Size  Location     Type
  5532 ;;  quotient        2   36[BANK0 ] int 
  5533 ;;  sign            1   35[BANK0 ] unsigned char 
  5534 ;;  counter         1   34[BANK0 ] unsigned char 
  5535 ;; Return value:  Size  Location     Type
  5536 ;;                  2   30[BANK0 ] int 
  5537 ;; Registers used:
  5538 ;;		wreg, status,2, status,0
  5539 ;; Tracked objects:
  5540 ;;		On entry : 0/0
  5541 ;;		On exit  : 0/0
  5542 ;;		Unchanged: 0/0
  5543 ;; Data sizes:     COMMON   BANK0   BANK1   BANK3   BANK2
  5544 ;;      Params:         0       4       0       0       0
  5545 ;;      Locals:         0       4       0       0       0
  5546 ;;      Temps:          0       0       0       0       0
  5547 ;;      Totals:         0       8       0       0       0
  5548 ;;Total ram usage:        8 bytes
  5549 ;; Hardware stack levels used: 1
  5550 ;; Hardware stack levels required when called: 2
  5551 ;; This function calls:
  5552 ;;		Nothing
  5553 ;; This function is called by:
  5554 ;;		_splitFloat
  5555 ;;		_splitDigits
  5556 ;; This function uses a non-reentrant model
  5557 ;;
  5558                           
  5559     11FF                     ___awdiv:	
  5560                           ;psect for function ___awdiv
  5561                           
  5562     11FF                     l2181:	
  5563                           ;incstack = 0
  5564                           ; Regs used in ___awdiv: [wreg+status,2+status,0]
  5565                           
  5566     11FF  1283               	bcf	3,5	;RP0=0, select bank0
  5567     1200  1303               	bcf	3,6	;RP1=0, select bank0
  5568     1201  01C3               	clrf	___awdiv@sign
  5569     1202                     l2183:
  5570     1202  1FBF               	btfss	___awdiv@divisor+1,7
  5571     1203  2A05               	goto	u2841
  5572     1204  2A06               	goto	u2840
  5573     1205                     u2841:
  5574     1205  2A0D               	goto	l2189
  5575     1206                     u2840:
  5576     1206                     l2185:
  5577     1206  09BE               	comf	___awdiv@divisor,f
  5578     1207  09BF               	comf	___awdiv@divisor+1,f
  5579     1208  0ABE               	incf	___awdiv@divisor,f
  5580     1209  1903               	skipnz
  5581     120A  0ABF               	incf	___awdiv@divisor+1,f
  5582     120B                     l2187:
  5583     120B  3001               	movlw	1
  5584     120C  00C3               	movwf	___awdiv@sign
  5585     120D                     l2189:
  5586     120D  1FC1               	btfss	___awdiv@dividend+1,7
  5587     120E  2A10               	goto	u2851
  5588     120F  2A11               	goto	u2850
  5589     1210                     u2851:
  5590     1210  2A18               	goto	l2195
  5591     1211                     u2850:
  5592     1211                     l2191:
  5593     1211  09C0               	comf	___awdiv@dividend,f
  5594     1212  09C1               	comf	___awdiv@dividend+1,f
  5595     1213  0AC0               	incf	___awdiv@dividend,f
  5596     1214  1903               	skipnz
  5597     1215  0AC1               	incf	___awdiv@dividend+1,f
  5598     1216                     l2193:
  5599     1216  3001               	movlw	1
  5600     1217  06C3               	xorwf	___awdiv@sign,f
  5601     1218                     l2195:
  5602     1218  01C4               	clrf	___awdiv@quotient
  5603     1219  01C5               	clrf	___awdiv@quotient+1
  5604     121A                     l2197:
  5605     121A  083E               	movf	___awdiv@divisor,w
  5606     121B  043F               	iorwf	___awdiv@divisor+1,w
  5607     121C  1903               	btfsc	3,2
  5608     121D  2A1F               	goto	u2861
  5609     121E  2A20               	goto	u2860
  5610     121F                     u2861:
  5611     121F  2A55               	goto	l2217
  5612     1220                     u2860:
  5613     1220                     l2199:
  5614     1220  3001               	movlw	1
  5615     1221  00C2               	movwf	___awdiv@counter
  5616     1222  2A2C               	goto	l2205
  5617     1223                     l2201:
  5618     1223  3001               	movlw	1
  5619     1224                     u2875:
  5620     1224  1003               	clrc
  5621     1225  0DBE               	rlf	___awdiv@divisor,f
  5622     1226  0DBF               	rlf	___awdiv@divisor+1,f
  5623     1227  3EFF               	addlw	-1
  5624     1228  1D03               	skipz
  5625     1229  2A24               	goto	u2875
  5626     122A                     l2203:
  5627     122A  3001               	movlw	1
  5628     122B  07C2               	addwf	___awdiv@counter,f
  5629     122C                     l2205:
  5630     122C  1FBF               	btfss	___awdiv@divisor+1,7
  5631     122D  2A2F               	goto	u2881
  5632     122E  2A30               	goto	u2880
  5633     122F                     u2881:
  5634     122F  2A23               	goto	l2201
  5635     1230                     u2880:
  5636     1230                     l2207:
  5637     1230  3001               	movlw	1
  5638     1231                     u2895:
  5639     1231  1003               	clrc
  5640     1232  0DC4               	rlf	___awdiv@quotient,f
  5641     1233  0DC5               	rlf	___awdiv@quotient+1,f
  5642     1234  3EFF               	addlw	-1
  5643     1235  1D03               	skipz
  5644     1236  2A31               	goto	u2895
  5645     1237  083F               	movf	___awdiv@divisor+1,w
  5646     1238  0241               	subwf	___awdiv@dividend+1,w
  5647     1239  1D03               	skipz
  5648     123A  2A3D               	goto	u2905
  5649     123B  083E               	movf	___awdiv@divisor,w
  5650     123C  0240               	subwf	___awdiv@dividend,w
  5651     123D                     u2905:
  5652     123D  1C03               	skipc
  5653     123E  2A40               	goto	u2901
  5654     123F  2A41               	goto	u2900
  5655     1240                     u2901:
  5656     1240  2A48               	goto	l2213
  5657     1241                     u2900:
  5658     1241                     l2209:
  5659     1241  083E               	movf	___awdiv@divisor,w
  5660     1242  02C0               	subwf	___awdiv@dividend,f
  5661     1243  083F               	movf	___awdiv@divisor+1,w
  5662     1244  1C03               	skipc
  5663     1245  03C1               	decf	___awdiv@dividend+1,f
  5664     1246  02C1               	subwf	___awdiv@dividend+1,f
  5665     1247                     l2211:
  5666     1247  1444               	bsf	___awdiv@quotient,0
  5667     1248                     l2213:
  5668     1248  3001               	movlw	1
  5669     1249                     u2915:
  5670     1249  1003               	clrc
  5671     124A  0CBF               	rrf	___awdiv@divisor+1,f
  5672     124B  0CBE               	rrf	___awdiv@divisor,f
  5673     124C  3EFF               	addlw	-1
  5674     124D  1D03               	skipz
  5675     124E  2A49               	goto	u2915
  5676     124F                     l2215:
  5677     124F  3001               	movlw	1
  5678     1250  02C2               	subwf	___awdiv@counter,f
  5679     1251  1D03               	btfss	3,2
  5680     1252  2A54               	goto	u2921
  5681     1253  2A55               	goto	u2920
  5682     1254                     u2921:
  5683     1254  2A30               	goto	l2207
  5684     1255                     u2920:
  5685     1255                     l2217:
  5686     1255  0843               	movf	___awdiv@sign,w
  5687     1256  1903               	btfsc	3,2
  5688     1257  2A59               	goto	u2931
  5689     1258  2A5A               	goto	u2930
  5690     1259                     u2931:
  5691     1259  2A5F               	goto	l2221
  5692     125A                     u2930:
  5693     125A                     l2219:
  5694     125A  09C4               	comf	___awdiv@quotient,f
  5695     125B  09C5               	comf	___awdiv@quotient+1,f
  5696     125C  0AC4               	incf	___awdiv@quotient,f
  5697     125D  1903               	skipnz
  5698     125E  0AC5               	incf	___awdiv@quotient+1,f
  5699     125F                     l2221:
  5700     125F  0845               	movf	___awdiv@quotient+1,w
  5701     1260  00BF               	movwf	?___awdiv+1
  5702     1261  0844               	movf	___awdiv@quotient,w
  5703     1262  00BE               	movwf	?___awdiv
  5704     1263                     l504:
  5705     1263  0008               	return
  5706     1264                     __end_of___awdiv:
  5707                           
  5708                           	psect	text9
  5709     10AA                     __ptext9:	
  5710 ;; *************** function _motor_stop *****************
  5711 ;; Defined at:
  5712 ;;		line 315 in file "main.c"
  5713 ;; Parameters:    Size  Location     Type
  5714 ;;		None
  5715 ;; Auto vars:     Size  Location     Type
  5716 ;;		None
  5717 ;; Return value:  Size  Location     Type
  5718 ;;                  1    wreg      void 
  5719 ;; Registers used:
  5720 ;;		None
  5721 ;; Tracked objects:
  5722 ;;		On entry : 0/0
  5723 ;;		On exit  : 0/0
  5724 ;;		Unchanged: 0/0
  5725 ;; Data sizes:     COMMON   BANK0   BANK1   BANK3   BANK2
  5726 ;;      Params:         0       0       0       0       0
  5727 ;;      Locals:         0       0       0       0       0
  5728 ;;      Temps:          0       0       0       0       0
  5729 ;;      Totals:         0       0       0       0       0
  5730 ;;Total ram usage:        0 bytes
  5731 ;; Hardware stack levels used: 1
  5732 ;; Hardware stack levels required when called: 2
  5733 ;; This function calls:
  5734 ;;		Nothing
  5735 ;; This function is called by:
  5736 ;;		_main
  5737 ;; This function uses a non-reentrant model
  5738 ;;
  5739                           
  5740     10AA                     _motor_stop:	
  5741                           ;psect for function _motor_stop
  5742                           
  5743     10AA                     l2741:	
  5744                           ;incstack = 0
  5745                           ; Regs used in _motor_stop: []
  5746                           
  5747                           
  5748                           ;main.c: 317:     RA6 = 0;
  5749     10AA  1283               	bcf	3,5	;RP0=0, select bank0
  5750     10AB  1303               	bcf	3,6	;RP1=0, select bank0
  5751     10AC  1305               	bcf	5,6	;volatile
  5752                           
  5753                           ;main.c: 318:     RA7 = 0;
  5754     10AD  1385               	bcf	5,7	;volatile
  5755     10AE                     l190:
  5756     10AE  0008               	return
  5757     10AF                     __end_of_motor_stop:
  5758                           
  5759                           	psect	text10
  5760     0801                     __ptext10:	
  5761 ;; *************** function _motor_reverse *****************
  5762 ;; Defined at:
  5763 ;;		line 329 in file "main.c"
  5764 ;; Parameters:    Size  Location     Type
  5765 ;;		None
  5766 ;; Auto vars:     Size  Location     Type
  5767 ;;		None
  5768 ;; Return value:  Size  Location     Type
  5769 ;;                  1    wreg      void 
  5770 ;; Registers used:
  5771 ;;		None
  5772 ;; Tracked objects:
  5773 ;;		On entry : 0/0
  5774 ;;		On exit  : 0/0
  5775 ;;		Unchanged: 0/0
  5776 ;; Data sizes:     COMMON   BANK0   BANK1   BANK3   BANK2
  5777 ;;      Params:         0       0       0       0       0
  5778 ;;      Locals:         0       0       0       0       0
  5779 ;;      Temps:          0       0       0       0       0
  5780 ;;      Totals:         0       0       0       0       0
  5781 ;;Total ram usage:        0 bytes
  5782 ;; Hardware stack levels used: 1
  5783 ;; Hardware stack levels required when called: 2
  5784 ;; This function calls:
  5785 ;;		Nothing
  5786 ;; This function is called by:
  5787 ;;		_main
  5788 ;; This function uses a non-reentrant model
  5789 ;;
  5790                           
  5791     0801                     _motor_reverse:	
  5792                           ;psect for function _motor_reverse
  5793                           
  5794     0801                     l2747:	
  5795                           ;incstack = 0
  5796                           ; Regs used in _motor_reverse: []
  5797                           
  5798                           
  5799                           ;main.c: 331:     RA6 = 0;
  5800     0801  1283               	bcf	3,5	;RP0=0, select bank0
  5801     0802  1303               	bcf	3,6	;RP1=0, select bank0
  5802     0803  1305               	bcf	5,6	;volatile
  5803                           
  5804                           ;main.c: 332:     RA7 = 1;
  5805     0804  1785               	bsf	5,7	;volatile
  5806                           
  5807                           ;main.c: 333:     direction = 2;
  5808     0805  3002               	movlw	2
  5809     0806  1683               	bsf	3,5	;RP0=1, select bank1
  5810     0807  1303               	bcf	3,6	;RP1=0, select bank1
  5811     0808  00EB               	movwf	_direction^(0+128)	;volatile
  5812                           
  5813                           ;main.c: 334:     stage = 1;
  5814     0809  3001               	movlw	1
  5815     080A  00FC               	movwf	_stage
  5816     080B                     l196:
  5817     080B  0008               	return
  5818     080C                     __end_of_motor_reverse:
  5819                           
  5820                           	psect	text11
  5821     10B7                     __ptext11:	
  5822 ;; *************** function _motor_forward *****************
  5823 ;; Defined at:
  5824 ;;		line 321 in file "main.c"
  5825 ;; Parameters:    Size  Location     Type
  5826 ;;		None
  5827 ;; Auto vars:     Size  Location     Type
  5828 ;;		None
  5829 ;; Return value:  Size  Location     Type
  5830 ;;                  1    wreg      void 
  5831 ;; Registers used:
  5832 ;;		status,2
  5833 ;; Tracked objects:
  5834 ;;		On entry : 0/0
  5835 ;;		On exit  : 0/0
  5836 ;;		Unchanged: 0/0
  5837 ;; Data sizes:     COMMON   BANK0   BANK1   BANK3   BANK2
  5838 ;;      Params:         0       0       0       0       0
  5839 ;;      Locals:         0       0       0       0       0
  5840 ;;      Temps:          0       0       0       0       0
  5841 ;;      Totals:         0       0       0       0       0
  5842 ;;Total ram usage:        0 bytes
  5843 ;; Hardware stack levels used: 1
  5844 ;; Hardware stack levels required when called: 2
  5845 ;; This function calls:
  5846 ;;		Nothing
  5847 ;; This function is called by:
  5848 ;;		_main
  5849 ;; This function uses a non-reentrant model
  5850 ;;
  5851                           
  5852     10B7                     _motor_forward:	
  5853                           ;psect for function _motor_forward
  5854                           
  5855     10B7                     l2743:	
  5856                           ;incstack = 0
  5857                           ; Regs used in _motor_forward: [status,2]
  5858                           
  5859                           
  5860                           ;main.c: 323:     RA6 = 1;
  5861     10B7  1283               	bcf	3,5	;RP0=0, select bank0
  5862     10B8  1303               	bcf	3,6	;RP1=0, select bank0
  5863     10B9  1705               	bsf	5,6	;volatile
  5864                           
  5865                           ;main.c: 324:     RA7 = 0;
  5866     10BA  1385               	bcf	5,7	;volatile
  5867                           
  5868                           ;main.c: 325:     direction = 1;
  5869     10BB  3001               	movlw	1
  5870     10BC  1683               	bsf	3,5	;RP0=1, select bank1
  5871     10BD  1303               	bcf	3,6	;RP1=0, select bank1
  5872     10BE  00EB               	movwf	_direction^(0+128)	;volatile
  5873     10BF                     l2745:
  5874                           
  5875                           ;main.c: 326:     stage = 0;
  5876     10BF  01FC               	clrf	_stage
  5877     10C0                     l193:
  5878     10C0  0008               	return
  5879     10C1                     __end_of_motor_forward:
  5880                           
  5881                           	psect	text12
  5882     10D9                     __ptext12:	
  5883 ;; *************** function _gpio_conf *****************
  5884 ;; Defined at:
  5885 ;;		line 128 in file "main.c"
  5886 ;; Parameters:    Size  Location     Type
  5887 ;;		None
  5888 ;; Auto vars:     Size  Location     Type
  5889 ;;		None
  5890 ;; Return value:  Size  Location     Type
  5891 ;;                  1    wreg      void 
  5892 ;; Registers used:
  5893 ;;		status,2
  5894 ;; Tracked objects:
  5895 ;;		On entry : 0/0
  5896 ;;		On exit  : 0/0
  5897 ;;		Unchanged: 0/0
  5898 ;; Data sizes:     COMMON   BANK0   BANK1   BANK3   BANK2
  5899 ;;      Params:         0       0       0       0       0
  5900 ;;      Locals:         0       0       0       0       0
  5901 ;;      Temps:          0       0       0       0       0
  5902 ;;      Totals:         0       0       0       0       0
  5903 ;;Total ram usage:        0 bytes
  5904 ;; Hardware stack levels used: 1
  5905 ;; Hardware stack levels required when called: 2
  5906 ;; This function calls:
  5907 ;;		Nothing
  5908 ;; This function is called by:
  5909 ;;		_main
  5910 ;; This function uses a non-reentrant model
  5911 ;;
  5912                           
  5913     10D9                     _gpio_conf:	
  5914                           ;psect for function _gpio_conf
  5915                           
  5916     10D9                     l2665:	
  5917                           ;incstack = 0
  5918                           ; Regs used in _gpio_conf: [status,2]
  5919                           
  5920                           
  5921                           ;main.c: 130:     TRISCbits.TRISC3 = 0;
  5922     10D9  1683               	bsf	3,5	;RP0=1, select bank1
  5923     10DA  1303               	bcf	3,6	;RP1=0, select bank1
  5924     10DB  1187               	bcf	7,3	;volatile
  5925                           
  5926                           ;main.c: 131:     TRISAbits.TRISA6 = 0;
  5927     10DC  1305               	bcf	5,6	;volatile
  5928                           
  5929                           ;main.c: 132:     TRISAbits.TRISA7 = 0;
  5930     10DD  1385               	bcf	5,7	;volatile
  5931                           
  5932                           ;main.c: 133:     TRISAbits.TRISA5 = 1;
  5933     10DE  1685               	bsf	5,5	;volatile
  5934                           
  5935                           ;main.c: 134:     TRISAbits.TRISA4 = 0;
  5936     10DF  1205               	bcf	5,4	;volatile
  5937                           
  5938                           ;main.c: 135:     TRISCbits.TRISC4 = 0;
  5939     10E0  1207               	bcf	7,4	;volatile
  5940                           
  5941                           ;main.c: 136:     TRISCbits.TRISC5 = 0;
  5942     10E1  1287               	bcf	7,5	;volatile
  5943                           
  5944                           ;main.c: 137:     TRISCbits.TRISC6 = 0;
  5945     10E2  1307               	bcf	7,6	;volatile
  5946                           
  5947                           ;main.c: 138:     TRISCbits.TRISC7 = 0;
  5948     10E3  1387               	bcf	7,7	;volatile
  5949                           
  5950                           ;main.c: 139:     TRISCbits.TRISC0 = 1;
  5951     10E4  1407               	bsf	7,0	;volatile
  5952                           
  5953                           ;main.c: 140:     TRISCbits.TRISC1 = 1;
  5954     10E5  1487               	bsf	7,1	;volatile
  5955                           
  5956                           ;main.c: 141:     TRISCbits.TRISC2 = 1;
  5957     10E6  1507               	bsf	7,2	;volatile
  5958     10E7                     l2667:
  5959                           
  5960                           ;main.c: 143:     TRISB = 0X00;
  5961     10E7  0186               	clrf	6	;volatile
  5962     10E8                     l2669:
  5963                           
  5964                           ;main.c: 145:      RC4=1;
  5965     10E8  1283               	bcf	3,5	;RP0=0, select bank0
  5966     10E9  1303               	bcf	3,6	;RP1=0, select bank0
  5967     10EA  1607               	bsf	7,4	;volatile
  5968     10EB                     l2671:
  5969                           
  5970                           ;main.c: 146:      RC7=1;
  5971     10EB  1787               	bsf	7,7	;volatile
  5972     10EC                     l2673:
  5973                           
  5974                           ;main.c: 147:      RC6=1;
  5975     10EC  1707               	bsf	7,6	;volatile
  5976     10ED                     l2675:
  5977                           
  5978                           ;main.c: 148:      RC5=1;
  5979     10ED  1687               	bsf	7,5	;volatile
  5980     10EE                     l2677:
  5981                           
  5982                           ;main.c: 151:     RA6 = 0;
  5983     10EE  1305               	bcf	5,6	;volatile
  5984     10EF                     l2679:
  5985                           
  5986                           ;main.c: 152:     RA7 = 0;
  5987     10EF  1385               	bcf	5,7	;volatile
  5988     10F0                     l2681:
  5989                           
  5990                           ;main.c: 153:     RC3 = 0;
  5991     10F0  1187               	bcf	7,3	;volatile
  5992     10F1                     l2683:
  5993                           
  5994                           ;main.c: 154:     RA4 = 0;
  5995     10F1  1205               	bcf	5,4	;volatile
  5996                           
  5997                           ;main.c: 155:     PORTB = 0X00;
  5998     10F2  0186               	clrf	6	;volatile
  5999     10F3                     l144:
  6000     10F3  0008               	return
  6001     10F4                     __end_of_gpio_conf:
  6002                           
  6003                           	psect	text13
  6004     156C                     __ptext13:	
  6005 ;; *************** function _getVoltage *****************
  6006 ;; Defined at:
  6007 ;;		line 337 in file "main.c"
  6008 ;; Parameters:    Size  Location     Type
  6009 ;;  ch              1    wreg     unsigned char 
  6010 ;; Auto vars:     Size  Location     Type
  6011 ;;  ch              1   36[BANK1 ] unsigned char 
  6012 ;;  i               2   41[BANK1 ] int 
  6013 ;;  sum             4   37[BANK1 ] unsigned long 
  6014 ;;  adc             2   34[BANK1 ] unsigned int 
  6015 ;; Return value:  Size  Location     Type
  6016 ;;                  4   26[BANK1 ] float 
  6017 ;; Registers used:
  6018 ;;		wreg, status,2, status,0, pclath, btemp1, cstack
  6019 ;; Tracked objects:
  6020 ;;		On entry : 0/0
  6021 ;;		On exit  : 0/0
  6022 ;;		Unchanged: 0/0
  6023 ;; Data sizes:     COMMON   BANK0   BANK1   BANK3   BANK2
  6024 ;;      Params:         0       0       4       0       0
  6025 ;;      Locals:         0       0       9       0       0
  6026 ;;      Temps:          0       0       4       0       0
  6027 ;;      Totals:         0       0      17       0       0
  6028 ;;Total ram usage:       17 bytes
  6029 ;; Hardware stack levels used: 1
  6030 ;; Hardware stack levels required when called: 3
  6031 ;; This function calls:
  6032 ;;		___fldiv
  6033 ;;		___flmul
  6034 ;;		___xxtofl
  6035 ;;		_readAdc
  6036 ;; This function is called by:
  6037 ;;		_main
  6038 ;; This function uses a non-reentrant model
  6039 ;;
  6040                           
  6041     156C                     _getVoltage:	
  6042                           ;psect for function _getVoltage
  6043                           
  6044                           
  6045                           ;incstack = 0
  6046                           ; Regs used in _getVoltage: [wreg+status,2+status,0+pclath+btemp1+cstack]
  6047                           ;getVoltage@ch stored from wreg
  6048     156C  1683               	bsf	3,5	;RP0=1, select bank1
  6049     156D  1303               	bcf	3,6	;RP1=0, select bank1
  6050     156E  00C4               	movwf	getVoltage@ch^(0+128)
  6051     156F                     l2749:
  6052                           
  6053                           ;main.c: 337: float getVoltage(unsigned char ch);main.c: 338: {;main.c: 339:     unsigne
      +                          d long sum = 0;
  6054     156F  3000               	movlw	0
  6055     1570  00C8               	movwf	(getVoltage@sum+3)^(0+128)
  6056     1571  3000               	movlw	0
  6057     1572  00C7               	movwf	(getVoltage@sum+2)^(0+128)
  6058     1573  3000               	movlw	0
  6059     1574  00C6               	movwf	(getVoltage@sum+1)^(0+128)
  6060     1575  3000               	movlw	0
  6061     1576  00C5               	movwf	getVoltage@sum^(0+128)
  6062     1577                     l2751:
  6063                           
  6064                           ;main.c: 341:     for(int i=0; i<4; i++)
  6065     1577  01C9               	clrf	getVoltage@i^(0+128)
  6066     1578  01CA               	clrf	(getVoltage@i+1)^(0+128)
  6067     1579                     l2757:
  6068                           
  6069                           ;main.c: 342:     {;main.c: 343:         sum += readAdc(ch);
  6070     1579  1683               	bsf	3,5	;RP0=1, select bank1
  6071     157A  1303               	bcf	3,6	;RP1=0, select bank1
  6072     157B  0844               	movf	getVoltage@ch^(0+128),w
  6073     157C  160A  118A  2153  160A  118A  	fcall	_readAdc
  6074     1581  1283               	bcf	3,5	;RP0=0, select bank0
  6075     1582  1303               	bcf	3,6	;RP1=0, select bank0
  6076     1583  0820               	movf	?_readAdc,w
  6077     1584  1683               	bsf	3,5	;RP0=1, select bank1
  6078     1585  1303               	bcf	3,6	;RP1=0, select bank1
  6079     1586  00BE               	movwf	??_getVoltage^(0+128)
  6080     1587  1283               	bcf	3,5	;RP0=0, select bank0
  6081     1588  1303               	bcf	3,6	;RP1=0, select bank0
  6082     1589  0821               	movf	?_readAdc+1,w
  6083     158A  1683               	bsf	3,5	;RP0=1, select bank1
  6084     158B  1303               	bcf	3,6	;RP1=0, select bank1
  6085     158C  00BF               	movwf	(??_getVoltage^(0+128)+1)
  6086     158D  01C0               	clrf	(??_getVoltage^(0+128)+2)
  6087     158E  01C1               	clrf	(??_getVoltage^(0+128)+3)
  6088     158F  083E               	movf	??_getVoltage^(0+128),w
  6089     1590  07C5               	addwf	getVoltage@sum^(0+128),f
  6090     1591  083F               	movf	(??_getVoltage+1)^(0+128),w
  6091     1592  1103               	clrz
  6092     1593  1803               	skipnc
  6093     1594  3E01               	addlw	1
  6094     1595  1903               	skipnz
  6095     1596  2D98               	goto	u4021
  6096     1597  07C6               	addwf	(getVoltage@sum+1)^(0+128),f
  6097     1598                     u4021:
  6098     1598  0840               	movf	(??_getVoltage+2)^(0+128),w
  6099     1599  1103               	clrz
  6100     159A  1803               	skipnc
  6101     159B  3E01               	addlw	1
  6102     159C  1903               	skipnz
  6103     159D  2D9F               	goto	u4022
  6104     159E  07C7               	addwf	(getVoltage@sum+2)^(0+128),f
  6105     159F                     u4022:
  6106     159F  0841               	movf	(??_getVoltage+3)^(0+128),w
  6107     15A0  1103               	clrz
  6108     15A1  1803               	skipnc
  6109     15A2  3E01               	addlw	1
  6110     15A3  1903               	skipnz
  6111     15A4  2DA6               	goto	u4023
  6112     15A5  07C8               	addwf	(getVoltage@sum+3)^(0+128),f
  6113     15A6                     u4023:
  6114     15A6                     l2759:
  6115                           
  6116                           ;main.c: 344:         _delay((unsigned long)((50)*(8000000/4000000.0)));
  6117     15A6  3020               	movlw	32
  6118     15A7  1683               	bsf	3,5	;RP0=1, select bank1
  6119     15A8  1303               	bcf	3,6	;RP1=0, select bank1
  6120     15A9  00BE               	movwf	??_getVoltage^(0+128)
  6121     15AA                     u4787:
  6122     15AA  0BBE               	decfsz	??_getVoltage^(0+128),f
  6123     15AB  2DAA               	goto	u4787
  6124     15AC  0000               	nop
  6125     15AD                     l2761:
  6126                           
  6127                           ;main.c: 345:     }
  6128     15AD  3001               	movlw	1
  6129     15AE  1683               	bsf	3,5	;RP0=1, select bank1
  6130     15AF  1303               	bcf	3,6	;RP1=0, select bank1
  6131     15B0  07C9               	addwf	getVoltage@i^(0+128),f
  6132     15B1  1803               	skipnc
  6133     15B2  0ACA               	incf	(getVoltage@i+1)^(0+128),f
  6134     15B3  3000               	movlw	0
  6135     15B4  07CA               	addwf	(getVoltage@i+1)^(0+128),f
  6136     15B5                     l2763:
  6137     15B5  084A               	movf	(getVoltage@i+1)^(0+128),w
  6138     15B6  3A80               	xorlw	128
  6139     15B7  00FF               	movwf	btemp1
  6140     15B8  3080               	movlw	128
  6141     15B9  027F               	subwf	btemp1,w
  6142     15BA  1D03               	skipz
  6143     15BB  2DBE               	goto	u4035
  6144     15BC  3004               	movlw	4
  6145     15BD  0249               	subwf	getVoltage@i^(0+128),w
  6146     15BE                     u4035:
  6147     15BE  1C03               	skipc
  6148     15BF  2DC1               	goto	u4031
  6149     15C0  2DC2               	goto	u4030
  6150     15C1                     u4031:
  6151     15C1  2D79               	goto	l2757
  6152     15C2                     u4030:
  6153     15C2                     l2765:
  6154                           
  6155                           ;main.c: 347:     unsigned int adc = sum / 4;
  6156     15C2  1683               	bsf	3,5	;RP0=1, select bank1
  6157     15C3  1303               	bcf	3,6	;RP1=0, select bank1
  6158     15C4  0845               	movf	getVoltage@sum^(0+128),w
  6159     15C5  00BE               	movwf	??_getVoltage^(0+128)
  6160     15C6  0846               	movf	(getVoltage@sum+1)^(0+128),w
  6161     15C7  00BF               	movwf	(??_getVoltage^(0+128)+1)
  6162     15C8  0847               	movf	(getVoltage@sum+2)^(0+128),w
  6163     15C9  00C0               	movwf	(??_getVoltage^(0+128)+2)
  6164     15CA  0848               	movf	(getVoltage@sum+3)^(0+128),w
  6165     15CB  00C1               	movwf	(??_getVoltage^(0+128)+3)
  6166     15CC  3002               	movlw	2
  6167     15CD                     u4045:
  6168     15CD  1003               	clrc
  6169     15CE  0CC1               	rrf	(??_getVoltage+3)^(0+128),f
  6170     15CF  0CC0               	rrf	(??_getVoltage+2)^(0+128),f
  6171     15D0  0CBF               	rrf	(??_getVoltage+1)^(0+128),f
  6172     15D1  0CBE               	rrf	??_getVoltage^(0+128),f
  6173     15D2                     u4040:
  6174     15D2  3EFF               	addlw	-1
  6175     15D3  1D03               	skipz
  6176     15D4  2DCD               	goto	u4045
  6177     15D5  083F               	movf	(??_getVoltage+1)^(0+128),w
  6178     15D6  00C3               	movwf	(getVoltage@adc+1)^(0+128)
  6179     15D7  083E               	movf	??_getVoltage^(0+128),w
  6180     15D8  00C2               	movwf	getVoltage@adc^(0+128)
  6181     15D9                     l2767:
  6182                           
  6183                           ;main.c: 349:     return (adc * 24.0f) / 1023.0f;
  6184     15D9  3044               	movlw	68
  6185     15DA  00A3               	movwf	(___fldiv@a+3)^(0+128)
  6186     15DB  307F               	movlw	127
  6187     15DC  00A2               	movwf	(___fldiv@a+2)^(0+128)
  6188     15DD  30C0               	movlw	192
  6189     15DE  00A1               	movwf	(___fldiv@a+1)^(0+128)
  6190     15DF  3000               	movlw	0
  6191     15E0  00A0               	movwf	___fldiv@a^(0+128)
  6192     15E1  3041               	movlw	65
  6193     15E2  1283               	bcf	3,5	;RP0=0, select bank0
  6194     15E3  1303               	bcf	3,6	;RP1=0, select bank0
  6195     15E4  00D7               	movwf	___flmul@b+3
  6196     15E5  30C0               	movlw	192
  6197     15E6  00D6               	movwf	___flmul@b+2
  6198     15E7  3000               	movlw	0
  6199     15E8  00D5               	movwf	___flmul@b+1
  6200     15E9  3000               	movlw	0
  6201     15EA  00D4               	movwf	___flmul@b
  6202     15EB  1683               	bsf	3,5	;RP0=1, select bank1
  6203     15EC  1303               	bcf	3,6	;RP1=0, select bank1
  6204     15ED  0842               	movf	getVoltage@adc^(0+128),w
  6205     15EE  1283               	bcf	3,5	;RP0=0, select bank0
  6206     15EF  1303               	bcf	3,6	;RP1=0, select bank0
  6207     15F0  00BE               	movwf	___xxtofl@val
  6208     15F1  1683               	bsf	3,5	;RP0=1, select bank1
  6209     15F2  1303               	bcf	3,6	;RP1=0, select bank1
  6210     15F3  0843               	movf	(getVoltage@adc+1)^(0+128),w
  6211     15F4  1283               	bcf	3,5	;RP0=0, select bank0
  6212     15F5  1303               	bcf	3,6	;RP1=0, select bank0
  6213     15F6  00BF               	movwf	___xxtofl@val+1
  6214     15F7  01C0               	clrf	___xxtofl@val+2
  6215     15F8  01C1               	clrf	___xxtofl@val+3
  6216     15F9  3000               	movlw	0
  6217     15FA  160A  118A  23EC  160A  118A  	fcall	___xxtofl
  6218     15FF  1283               	bcf	3,5	;RP0=0, select bank0
  6219     1600  1303               	bcf	3,6	;RP1=0, select bank0
  6220     1601  0841               	movf	?___xxtofl+3,w
  6221     1602  00DB               	movwf	___flmul@a+3
  6222     1603  0840               	movf	?___xxtofl+2,w
  6223     1604  00DA               	movwf	___flmul@a+2
  6224     1605  083F               	movf	?___xxtofl+1,w
  6225     1606  00D9               	movwf	___flmul@a+1
  6226     1607  083E               	movf	?___xxtofl,w
  6227     1608  00D8               	movwf	___flmul@a
  6228     1609  120A  158A  2038  160A  118A  	fcall	___flmul
  6229     160E  1283               	bcf	3,5	;RP0=0, select bank0
  6230     160F  1303               	bcf	3,6	;RP1=0, select bank0
  6231     1610  0857               	movf	?___flmul+3,w
  6232     1611  1683               	bsf	3,5	;RP0=1, select bank1
  6233     1612  1303               	bcf	3,6	;RP1=0, select bank1
  6234     1613  00A7               	movwf	(___fldiv@b+3)^(0+128)
  6235     1614  1283               	bcf	3,5	;RP0=0, select bank0
  6236     1615  1303               	bcf	3,6	;RP1=0, select bank0
  6237     1616  0856               	movf	?___flmul+2,w
  6238     1617  1683               	bsf	3,5	;RP0=1, select bank1
  6239     1618  1303               	bcf	3,6	;RP1=0, select bank1
  6240     1619  00A6               	movwf	(___fldiv@b+2)^(0+128)
  6241     161A  1283               	bcf	3,5	;RP0=0, select bank0
  6242     161B  1303               	bcf	3,6	;RP1=0, select bank0
  6243     161C  0855               	movf	?___flmul+1,w
  6244     161D  1683               	bsf	3,5	;RP0=1, select bank1
  6245     161E  1303               	bcf	3,6	;RP1=0, select bank1
  6246     161F  00A5               	movwf	(___fldiv@b+1)^(0+128)
  6247     1620  1283               	bcf	3,5	;RP0=0, select bank0
  6248     1621  1303               	bcf	3,6	;RP1=0, select bank0
  6249     1622  0854               	movf	?___flmul,w
  6250     1623  1683               	bsf	3,5	;RP0=1, select bank1
  6251     1624  1303               	bcf	3,6	;RP1=0, select bank1
  6252     1625  00A4               	movwf	___fldiv@b^(0+128)
  6253     1626  160A  118A  2636  160A  118A  	fcall	___fldiv
  6254     162B  1683               	bsf	3,5	;RP0=1, select bank1
  6255     162C  1303               	bcf	3,6	;RP1=0, select bank1
  6256     162D  0823               	movf	(?___fldiv+3)^(0+128),w
  6257     162E  00BD               	movwf	(?_getVoltage+3)^(0+128)
  6258     162F  0822               	movf	(?___fldiv+2)^(0+128),w
  6259     1630  00BC               	movwf	(?_getVoltage+2)^(0+128)
  6260     1631  0821               	movf	(?___fldiv+1)^(0+128),w
  6261     1632  00BB               	movwf	(?_getVoltage+1)^(0+128)
  6262     1633  0820               	movf	?___fldiv^(0+128),w
  6263     1634  00BA               	movwf	?_getVoltage^(0+128)
  6264     1635                     l201:
  6265     1635  0008               	return
  6266     1636                     __end_of_getVoltage:
  6267                           
  6268                           	psect	text14
  6269     14A2                     __ptext14:	
  6270 ;; *************** function _getAmps *****************
  6271 ;; Defined at:
  6272 ;;		line 352 in file "main.c"
  6273 ;; Parameters:    Size  Location     Type
  6274 ;;  ch              1    wreg     unsigned char 
  6275 ;; Auto vars:     Size  Location     Type
  6276 ;;  ch              1   36[BANK1 ] unsigned char 
  6277 ;;  i               2   41[BANK1 ] int 
  6278 ;;  sum             4   37[BANK1 ] unsigned long 
  6279 ;;  adc             2   34[BANK1 ] unsigned int 
  6280 ;; Return value:  Size  Location     Type
  6281 ;;                  4   26[BANK1 ] float 
  6282 ;; Registers used:
  6283 ;;		wreg, status,2, status,0, pclath, btemp1, cstack
  6284 ;; Tracked objects:
  6285 ;;		On entry : 0/0
  6286 ;;		On exit  : 0/0
  6287 ;;		Unchanged: 0/0
  6288 ;; Data sizes:     COMMON   BANK0   BANK1   BANK3   BANK2
  6289 ;;      Params:         0       0       4       0       0
  6290 ;;      Locals:         0       0       9       0       0
  6291 ;;      Temps:          0       0       4       0       0
  6292 ;;      Totals:         0       0      17       0       0
  6293 ;;Total ram usage:       17 bytes
  6294 ;; Hardware stack levels used: 1
  6295 ;; Hardware stack levels required when called: 4
  6296 ;; This function calls:
  6297 ;;		___fldiv
  6298 ;;		___flmul
  6299 ;;		___xxtofl
  6300 ;;		_readAdc
  6301 ;; This function is called by:
  6302 ;;		_main
  6303 ;; This function uses a non-reentrant model
  6304 ;;
  6305                           
  6306     14A2                     _getAmps:	
  6307                           ;psect for function _getAmps
  6308                           
  6309                           
  6310                           ;incstack = 0
  6311                           ; Regs used in _getAmps: [wreg+status,2+status,0+pclath+btemp1+cstack]
  6312                           ;getAmps@ch stored from wreg
  6313     14A2  1683               	bsf	3,5	;RP0=1, select bank1
  6314     14A3  1303               	bcf	3,6	;RP1=0, select bank1
  6315     14A4  00C4               	movwf	getAmps@ch^(0+128)
  6316     14A5                     l2771:
  6317                           
  6318                           ;main.c: 352: float getAmps(unsigned char ch);main.c: 353: {;main.c: 354:     unsigned l
      +                          ong sum = 0;
  6319     14A5  3000               	movlw	0
  6320     14A6  00C8               	movwf	(getAmps@sum+3)^(0+128)
  6321     14A7  3000               	movlw	0
  6322     14A8  00C7               	movwf	(getAmps@sum+2)^(0+128)
  6323     14A9  3000               	movlw	0
  6324     14AA  00C6               	movwf	(getAmps@sum+1)^(0+128)
  6325     14AB  3000               	movlw	0
  6326     14AC  00C5               	movwf	getAmps@sum^(0+128)
  6327     14AD                     l2773:
  6328                           
  6329                           ;main.c: 356:     for(int i=0; i<4; i++)
  6330     14AD  01C9               	clrf	getAmps@i^(0+128)
  6331     14AE  01CA               	clrf	(getAmps@i+1)^(0+128)
  6332     14AF                     l2779:
  6333                           
  6334                           ;main.c: 357:     {;main.c: 358:         sum += readAdc(ch);
  6335     14AF  1683               	bsf	3,5	;RP0=1, select bank1
  6336     14B0  1303               	bcf	3,6	;RP1=0, select bank1
  6337     14B1  0844               	movf	getAmps@ch^(0+128),w
  6338     14B2  160A  118A  2153  160A  118A  	fcall	_readAdc
  6339     14B7  1283               	bcf	3,5	;RP0=0, select bank0
  6340     14B8  1303               	bcf	3,6	;RP1=0, select bank0
  6341     14B9  0820               	movf	?_readAdc,w
  6342     14BA  1683               	bsf	3,5	;RP0=1, select bank1
  6343     14BB  1303               	bcf	3,6	;RP1=0, select bank1
  6344     14BC  00BE               	movwf	??_getAmps^(0+128)
  6345     14BD  1283               	bcf	3,5	;RP0=0, select bank0
  6346     14BE  1303               	bcf	3,6	;RP1=0, select bank0
  6347     14BF  0821               	movf	?_readAdc+1,w
  6348     14C0  1683               	bsf	3,5	;RP0=1, select bank1
  6349     14C1  1303               	bcf	3,6	;RP1=0, select bank1
  6350     14C2  00BF               	movwf	(??_getAmps^(0+128)+1)
  6351     14C3  01C0               	clrf	(??_getAmps^(0+128)+2)
  6352     14C4  01C1               	clrf	(??_getAmps^(0+128)+3)
  6353     14C5  083E               	movf	??_getAmps^(0+128),w
  6354     14C6  07C5               	addwf	getAmps@sum^(0+128),f
  6355     14C7  083F               	movf	(??_getAmps+1)^(0+128),w
  6356     14C8  1103               	clrz
  6357     14C9  1803               	skipnc
  6358     14CA  3E01               	addlw	1
  6359     14CB  1903               	skipnz
  6360     14CC  2CCE               	goto	u4051
  6361     14CD  07C6               	addwf	(getAmps@sum+1)^(0+128),f
  6362     14CE                     u4051:
  6363     14CE  0840               	movf	(??_getAmps+2)^(0+128),w
  6364     14CF  1103               	clrz
  6365     14D0  1803               	skipnc
  6366     14D1  3E01               	addlw	1
  6367     14D2  1903               	skipnz
  6368     14D3  2CD5               	goto	u4052
  6369     14D4  07C7               	addwf	(getAmps@sum+2)^(0+128),f
  6370     14D5                     u4052:
  6371     14D5  0841               	movf	(??_getAmps+3)^(0+128),w
  6372     14D6  1103               	clrz
  6373     14D7  1803               	skipnc
  6374     14D8  3E01               	addlw	1
  6375     14D9  1903               	skipnz
  6376     14DA  2CDC               	goto	u4053
  6377     14DB  07C8               	addwf	(getAmps@sum+3)^(0+128),f
  6378     14DC                     u4053:
  6379     14DC                     l2781:
  6380                           
  6381                           ;main.c: 359:         _delay((unsigned long)((50)*(8000000/4000000.0)));
  6382     14DC  3020               	movlw	32
  6383     14DD  1683               	bsf	3,5	;RP0=1, select bank1
  6384     14DE  1303               	bcf	3,6	;RP1=0, select bank1
  6385     14DF  00BE               	movwf	??_getAmps^(0+128)
  6386     14E0                     u4797:
  6387     14E0  0BBE               	decfsz	??_getAmps^(0+128),f
  6388     14E1  2CE0               	goto	u4797
  6389     14E2  0000               	nop
  6390     14E3                     l2783:
  6391                           
  6392                           ;main.c: 360:     }
  6393     14E3  3001               	movlw	1
  6394     14E4  1683               	bsf	3,5	;RP0=1, select bank1
  6395     14E5  1303               	bcf	3,6	;RP1=0, select bank1
  6396     14E6  07C9               	addwf	getAmps@i^(0+128),f
  6397     14E7  1803               	skipnc
  6398     14E8  0ACA               	incf	(getAmps@i+1)^(0+128),f
  6399     14E9  3000               	movlw	0
  6400     14EA  07CA               	addwf	(getAmps@i+1)^(0+128),f
  6401     14EB                     l2785:
  6402     14EB  084A               	movf	(getAmps@i+1)^(0+128),w
  6403     14EC  3A80               	xorlw	128
  6404     14ED  00FF               	movwf	btemp1
  6405     14EE  3080               	movlw	128
  6406     14EF  027F               	subwf	btemp1,w
  6407     14F0  1D03               	skipz
  6408     14F1  2CF4               	goto	u4065
  6409     14F2  3004               	movlw	4
  6410     14F3  0249               	subwf	getAmps@i^(0+128),w
  6411     14F4                     u4065:
  6412     14F4  1C03               	skipc
  6413     14F5  2CF7               	goto	u4061
  6414     14F6  2CF8               	goto	u4060
  6415     14F7                     u4061:
  6416     14F7  2CAF               	goto	l2779
  6417     14F8                     u4060:
  6418     14F8                     l2787:
  6419                           
  6420                           ;main.c: 362:     unsigned int adc = sum / 4;
  6421     14F8  1683               	bsf	3,5	;RP0=1, select bank1
  6422     14F9  1303               	bcf	3,6	;RP1=0, select bank1
  6423     14FA  0845               	movf	getAmps@sum^(0+128),w
  6424     14FB  00BE               	movwf	??_getAmps^(0+128)
  6425     14FC  0846               	movf	(getAmps@sum+1)^(0+128),w
  6426     14FD  00BF               	movwf	(??_getAmps^(0+128)+1)
  6427     14FE  0847               	movf	(getAmps@sum+2)^(0+128),w
  6428     14FF  00C0               	movwf	(??_getAmps^(0+128)+2)
  6429     1500  0848               	movf	(getAmps@sum+3)^(0+128),w
  6430     1501  00C1               	movwf	(??_getAmps^(0+128)+3)
  6431     1502  3002               	movlw	2
  6432     1503                     u4075:
  6433     1503  1003               	clrc
  6434     1504  0CC1               	rrf	(??_getAmps+3)^(0+128),f
  6435     1505  0CC0               	rrf	(??_getAmps+2)^(0+128),f
  6436     1506  0CBF               	rrf	(??_getAmps+1)^(0+128),f
  6437     1507  0CBE               	rrf	??_getAmps^(0+128),f
  6438     1508                     u4070:
  6439     1508  3EFF               	addlw	-1
  6440     1509  1D03               	skipz
  6441     150A  2D03               	goto	u4075
  6442     150B  083F               	movf	(??_getAmps+1)^(0+128),w
  6443     150C  00C3               	movwf	(getAmps@adc+1)^(0+128)
  6444     150D  083E               	movf	??_getAmps^(0+128),w
  6445     150E  00C2               	movwf	getAmps@adc^(0+128)
  6446     150F                     l2789:
  6447                           
  6448                           ;main.c: 364:     return (adc * 10.0f) / 1023.0f;
  6449     150F  3044               	movlw	68
  6450     1510  00A3               	movwf	(___fldiv@a+3)^(0+128)
  6451     1511  307F               	movlw	127
  6452     1512  00A2               	movwf	(___fldiv@a+2)^(0+128)
  6453     1513  30C0               	movlw	192
  6454     1514  00A1               	movwf	(___fldiv@a+1)^(0+128)
  6455     1515  3000               	movlw	0
  6456     1516  00A0               	movwf	___fldiv@a^(0+128)
  6457     1517  3041               	movlw	65
  6458     1518  1283               	bcf	3,5	;RP0=0, select bank0
  6459     1519  1303               	bcf	3,6	;RP1=0, select bank0
  6460     151A  00D7               	movwf	___flmul@b+3
  6461     151B  3020               	movlw	32
  6462     151C  00D6               	movwf	___flmul@b+2
  6463     151D  3000               	movlw	0
  6464     151E  00D5               	movwf	___flmul@b+1
  6465     151F  3000               	movlw	0
  6466     1520  00D4               	movwf	___flmul@b
  6467     1521  1683               	bsf	3,5	;RP0=1, select bank1
  6468     1522  1303               	bcf	3,6	;RP1=0, select bank1
  6469     1523  0842               	movf	getAmps@adc^(0+128),w
  6470     1524  1283               	bcf	3,5	;RP0=0, select bank0
  6471     1525  1303               	bcf	3,6	;RP1=0, select bank0
  6472     1526  00BE               	movwf	___xxtofl@val
  6473     1527  1683               	bsf	3,5	;RP0=1, select bank1
  6474     1528  1303               	bcf	3,6	;RP1=0, select bank1
  6475     1529  0843               	movf	(getAmps@adc+1)^(0+128),w
  6476     152A  1283               	bcf	3,5	;RP0=0, select bank0
  6477     152B  1303               	bcf	3,6	;RP1=0, select bank0
  6478     152C  00BF               	movwf	___xxtofl@val+1
  6479     152D  01C0               	clrf	___xxtofl@val+2
  6480     152E  01C1               	clrf	___xxtofl@val+3
  6481     152F  3000               	movlw	0
  6482     1530  160A  118A  23EC  160A  118A  	fcall	___xxtofl
  6483     1535  1283               	bcf	3,5	;RP0=0, select bank0
  6484     1536  1303               	bcf	3,6	;RP1=0, select bank0
  6485     1537  0841               	movf	?___xxtofl+3,w
  6486     1538  00DB               	movwf	___flmul@a+3
  6487     1539  0840               	movf	?___xxtofl+2,w
  6488     153A  00DA               	movwf	___flmul@a+2
  6489     153B  083F               	movf	?___xxtofl+1,w
  6490     153C  00D9               	movwf	___flmul@a+1
  6491     153D  083E               	movf	?___xxtofl,w
  6492     153E  00D8               	movwf	___flmul@a
  6493     153F  120A  158A  2038  160A  118A  	fcall	___flmul
  6494     1544  1283               	bcf	3,5	;RP0=0, select bank0
  6495     1545  1303               	bcf	3,6	;RP1=0, select bank0
  6496     1546  0857               	movf	?___flmul+3,w
  6497     1547  1683               	bsf	3,5	;RP0=1, select bank1
  6498     1548  1303               	bcf	3,6	;RP1=0, select bank1
  6499     1549  00A7               	movwf	(___fldiv@b+3)^(0+128)
  6500     154A  1283               	bcf	3,5	;RP0=0, select bank0
  6501     154B  1303               	bcf	3,6	;RP1=0, select bank0
  6502     154C  0856               	movf	?___flmul+2,w
  6503     154D  1683               	bsf	3,5	;RP0=1, select bank1
  6504     154E  1303               	bcf	3,6	;RP1=0, select bank1
  6505     154F  00A6               	movwf	(___fldiv@b+2)^(0+128)
  6506     1550  1283               	bcf	3,5	;RP0=0, select bank0
  6507     1551  1303               	bcf	3,6	;RP1=0, select bank0
  6508     1552  0855               	movf	?___flmul+1,w
  6509     1553  1683               	bsf	3,5	;RP0=1, select bank1
  6510     1554  1303               	bcf	3,6	;RP1=0, select bank1
  6511     1555  00A5               	movwf	(___fldiv@b+1)^(0+128)
  6512     1556  1283               	bcf	3,5	;RP0=0, select bank0
  6513     1557  1303               	bcf	3,6	;RP1=0, select bank0
  6514     1558  0854               	movf	?___flmul,w
  6515     1559  1683               	bsf	3,5	;RP0=1, select bank1
  6516     155A  1303               	bcf	3,6	;RP1=0, select bank1
  6517     155B  00A4               	movwf	___fldiv@b^(0+128)
  6518     155C  160A  118A  2636  160A  118A  	fcall	___fldiv
  6519     1561  1683               	bsf	3,5	;RP0=1, select bank1
  6520     1562  1303               	bcf	3,6	;RP1=0, select bank1
  6521     1563  0823               	movf	(?___fldiv+3)^(0+128),w
  6522     1564  00BD               	movwf	(?_getAmps+3)^(0+128)
  6523     1565  0822               	movf	(?___fldiv+2)^(0+128),w
  6524     1566  00BC               	movwf	(?_getAmps+2)^(0+128)
  6525     1567  0821               	movf	(?___fldiv+1)^(0+128),w
  6526     1568  00BB               	movwf	(?_getAmps+1)^(0+128)
  6527     1569  0820               	movf	?___fldiv^(0+128),w
  6528     156A  00BA               	movwf	?_getAmps^(0+128)
  6529     156B                     l206:
  6530     156B  0008               	return
  6531     156C                     __end_of_getAmps:
  6532                           
  6533                           	psect	text15
  6534     1153                     __ptext15:	
  6535 ;; *************** function _readAdc *****************
  6536 ;; Defined at:
  6537 ;;		line 113 in file "main.c"
  6538 ;; Parameters:    Size  Location     Type
  6539 ;;  ch              1    wreg     unsigned char 
  6540 ;; Auto vars:     Size  Location     Type
  6541 ;;  ch              1    3[BANK0 ] unsigned char 
  6542 ;; Return value:  Size  Location     Type
  6543 ;;                  2    0[BANK0 ] unsigned int 
  6544 ;; Registers used:
  6545 ;;		wreg, status,2, status,0
  6546 ;; Tracked objects:
  6547 ;;		On entry : 0/0
  6548 ;;		On exit  : 0/0
  6549 ;;		Unchanged: 0/0
  6550 ;; Data sizes:     COMMON   BANK0   BANK1   BANK3   BANK2
  6551 ;;      Params:         0       2       0       0       0
  6552 ;;      Locals:         0       1       0       0       0
  6553 ;;      Temps:          0       1       0       0       0
  6554 ;;      Totals:         0       4       0       0       0
  6555 ;;Total ram usage:        4 bytes
  6556 ;; Hardware stack levels used: 1
  6557 ;; Hardware stack levels required when called: 2
  6558 ;; This function calls:
  6559 ;;		Nothing
  6560 ;; This function is called by:
  6561 ;;		_getVoltage
  6562 ;;		_getAmps
  6563 ;; This function uses a non-reentrant model
  6564 ;;
  6565                           
  6566     1153                     _readAdc:	
  6567                           ;psect for function _readAdc
  6568                           
  6569                           
  6570                           ;incstack = 0
  6571                           ; Regs used in _readAdc: [wreg+status,2+status,0]
  6572                           ;readAdc@ch stored from wreg
  6573     1153  1283               	bcf	3,5	;RP0=0, select bank0
  6574     1154  1303               	bcf	3,6	;RP1=0, select bank0
  6575     1155  00A3               	movwf	readAdc@ch
  6576     1156                     l2169:
  6577                           
  6578                           ;main.c: 113: unsigned int readAdc(unsigned char ch);main.c: 114: {;main.c: 115:     ADC
      +                          ON0 &= 0b11000011;
  6579     1156  30C3               	movlw	195
  6580     1157  059F               	andwf	31,f	;volatile
  6581                           
  6582                           ;main.c: 116:     ADCON0 |= (ch << 2);
  6583     1158  0823               	movf	readAdc@ch,w	;volatile
  6584     1159  00A2               	movwf	??_readAdc
  6585     115A  3001               	movlw	1
  6586     115B                     u2825:
  6587     115B  1003               	clrc
  6588     115C  0DA2               	rlf	??_readAdc,f
  6589     115D  3EFF               	addlw	-1
  6590     115E  1D03               	skipz
  6591     115F  295B               	goto	u2825
  6592     1160  1003               	clrc
  6593     1161  0D22               	rlf	??_readAdc,w
  6594     1162  049F               	iorwf	31,f	;volatile
  6595     1163                     l2171:
  6596                           
  6597                           ;main.c: 118:     _delay((unsigned long)((10)*(8000000/4000000.0)));
  6598     1163  3005               	movlw	5
  6599     1164  1283               	bcf	3,5	;RP0=0, select bank0
  6600     1165  1303               	bcf	3,6	;RP1=0, select bank0
  6601     1166  00A2               	movwf	??_readAdc
  6602     1167                     u4807:
  6603     1167  0BA2               	decfsz	??_readAdc,f
  6604     1168  2967               	goto	u4807
  6605     1169  296A               	nop2
  6606     116A                     l2173:
  6607                           
  6608                           ;main.c: 120:     ADON = 1;
  6609     116A  1283               	bcf	3,5	;RP0=0, select bank0
  6610     116B  1303               	bcf	3,6	;RP1=0, select bank0
  6611     116C  141F               	bsf	31,0	;volatile
  6612     116D                     l2175:
  6613                           
  6614                           ;main.c: 121:     GO_nDONE = 1;
  6615     116D  149F               	bsf	31,1	;volatile
  6616     116E                     l138:	
  6617                           ;main.c: 122:     while(GO_nDONE);
  6618                           
  6619     116E  189F               	btfsc	31,1	;volatile
  6620     116F  2971               	goto	u2831
  6621     1170  2972               	goto	u2830
  6622     1171                     u2831:
  6623     1171  296E               	goto	l138
  6624     1172                     u2830:
  6625     1172                     l2177:
  6626                           
  6627                           ;main.c: 124:     return ((ADRESH << 8) | ADRESL);
  6628     1172  081E               	movf	30,w	;volatile
  6629     1173  00A1               	movwf	?_readAdc+1
  6630     1174  1683               	bsf	3,5	;RP0=1, select bank1
  6631     1175  1303               	bcf	3,6	;RP1=0, select bank1
  6632     1176  081E               	movf	30,w	;volatile
  6633     1177  1283               	bcf	3,5	;RP0=0, select bank0
  6634     1178  1303               	bcf	3,6	;RP1=0, select bank0
  6635     1179  00A0               	movwf	?_readAdc
  6636     117A                     l141:
  6637     117A  0008               	return
  6638     117B                     __end_of_readAdc:
  6639                           
  6640                           	psect	text16
  6641     13EC                     __ptext16:	
  6642 ;; *************** function ___xxtofl *****************
  6643 ;; Defined at:
  6644 ;;		line 10 in file "C:\Program Files\Microchip\xc8\v3.10\pic\sources\c99\common\xxtofl.c"
  6645 ;; Parameters:    Size  Location     Type
  6646 ;;  sign            1    wreg     unsigned char 
  6647 ;;  val             4   30[BANK0 ] long 
  6648 ;; Auto vars:     Size  Location     Type
  6649 ;;  sign            1   38[BANK0 ] unsigned char 
  6650 ;;  arg             4   40[BANK0 ] unsigned long 
  6651 ;;  exp             1   39[BANK0 ] unsigned char 
  6652 ;; Return value:  Size  Location     Type
  6653 ;;                  4   30[BANK0 ] unsigned char 
  6654 ;; Registers used:
  6655 ;;		wreg, status,2, status,0
  6656 ;; Tracked objects:
  6657 ;;		On entry : 0/0
  6658 ;;		On exit  : 0/0
  6659 ;;		Unchanged: 0/0
  6660 ;; Data sizes:     COMMON   BANK0   BANK1   BANK3   BANK2
  6661 ;;      Params:         0       4       0       0       0
  6662 ;;      Locals:         0       6       0       0       0
  6663 ;;      Temps:          0       4       0       0       0
  6664 ;;      Totals:         0      14       0       0       0
  6665 ;;Total ram usage:       14 bytes
  6666 ;; Hardware stack levels used: 1
  6667 ;; Hardware stack levels required when called: 2
  6668 ;; This function calls:
  6669 ;;		Nothing
  6670 ;; This function is called by:
  6671 ;;		_splitFloat
  6672 ;;		_getVoltage
  6673 ;;		_getAmps
  6674 ;; This function uses a non-reentrant model
  6675 ;;
  6676                           
  6677     13EC                     ___xxtofl:	
  6678                           ;psect for function ___xxtofl
  6679                           
  6680                           
  6681                           ;incstack = 0
  6682                           ; Regs used in ___xxtofl: [wreg+status,2+status,0]
  6683                           ;___xxtofl@sign stored from wreg
  6684     13EC  1283               	bcf	3,5	;RP0=0, select bank0
  6685     13ED  1303               	bcf	3,6	;RP1=0, select bank0
  6686     13EE  00C6               	movwf	___xxtofl@sign
  6687     13EF                     l2611:
  6688     13EF  0846               	movf	___xxtofl@sign,w
  6689     13F0  1903               	btfsc	3,2
  6690     13F1  2BF3               	goto	u3861
  6691     13F2  2BF4               	goto	u3860
  6692     13F3                     u3861:
  6693     13F3  2C08               	goto	l2617
  6694     13F4                     u3860:
  6695     13F4                     l2613:
  6696     13F4  1FC1               	btfss	___xxtofl@val+3,7
  6697     13F5  2BF7               	goto	u3871
  6698     13F6  2BF8               	goto	u3870
  6699     13F7                     u3871:
  6700     13F7  2C08               	goto	l2617
  6701     13F8                     u3870:
  6702     13F8                     l2615:
  6703     13F8  093E               	comf	___xxtofl@val,w
  6704     13F9  00C8               	movwf	___xxtofl@arg
  6705     13FA  093F               	comf	___xxtofl@val+1,w
  6706     13FB  00C9               	movwf	___xxtofl@arg+1
  6707     13FC  0940               	comf	___xxtofl@val+2,w
  6708     13FD  00CA               	movwf	___xxtofl@arg+2
  6709     13FE  0941               	comf	___xxtofl@val+3,w
  6710     13FF  00CB               	movwf	___xxtofl@arg+3
  6711     1400  0AC8               	incf	___xxtofl@arg,f
  6712     1401  1903               	skipnz
  6713     1402  0AC9               	incf	___xxtofl@arg+1,f
  6714     1403  1903               	skipnz
  6715     1404  0ACA               	incf	___xxtofl@arg+2,f
  6716     1405  1903               	skipnz
  6717     1406  0ACB               	incf	___xxtofl@arg+3,f
  6718     1407  2C10               	goto	l792
  6719     1408                     l2617:
  6720     1408  0841               	movf	___xxtofl@val+3,w
  6721     1409  00CB               	movwf	___xxtofl@arg+3
  6722     140A  0840               	movf	___xxtofl@val+2,w
  6723     140B  00CA               	movwf	___xxtofl@arg+2
  6724     140C  083F               	movf	___xxtofl@val+1,w
  6725     140D  00C9               	movwf	___xxtofl@arg+1
  6726     140E  083E               	movf	___xxtofl@val,w
  6727     140F  00C8               	movwf	___xxtofl@arg
  6728     1410                     l792:
  6729     1410  0841               	movf	___xxtofl@val+3,w
  6730     1411  0440               	iorwf	___xxtofl@val+2,w
  6731     1412  043F               	iorwf	___xxtofl@val+1,w
  6732     1413  043E               	iorwf	___xxtofl@val,w
  6733     1414  1D03               	skipz
  6734     1415  2C17               	goto	u3881
  6735     1416  2C18               	goto	u3880
  6736     1417                     u3881:
  6737     1417  2C21               	goto	l793
  6738     1418                     u3880:
  6739     1418                     l2619:
  6740     1418  3000               	movlw	0
  6741     1419  00C1               	movwf	?___xxtofl+3
  6742     141A  3000               	movlw	0
  6743     141B  00C0               	movwf	?___xxtofl+2
  6744     141C  3000               	movlw	0
  6745     141D  00BF               	movwf	?___xxtofl+1
  6746     141E  3000               	movlw	0
  6747     141F  00BE               	movwf	?___xxtofl
  6748     1420  2CA1               	goto	l794
  6749     1421                     l793:
  6750     1421  3096               	movlw	150
  6751     1422  00C7               	movwf	___xxtofl@exp
  6752     1423  2C2F               	goto	l2625
  6753     1424                     l2623:
  6754     1424  3001               	movlw	1
  6755     1425  07C7               	addwf	___xxtofl@exp,f
  6756     1426  3001               	movlw	1
  6757     1427                     u3895:
  6758     1427  1003               	clrc
  6759     1428  0CCB               	rrf	___xxtofl@arg+3,f
  6760     1429  0CCA               	rrf	___xxtofl@arg+2,f
  6761     142A  0CC9               	rrf	___xxtofl@arg+1,f
  6762     142B  0CC8               	rrf	___xxtofl@arg,f
  6763     142C  3EFF               	addlw	-1
  6764     142D  1D03               	skipz
  6765     142E  2C27               	goto	u3895
  6766     142F                     l2625:
  6767     142F  30FE               	movlw	254
  6768     1430  054B               	andwf	___xxtofl@arg+3,w
  6769     1431  1D03               	btfss	3,2
  6770     1432  2C34               	goto	u3901
  6771     1433  2C35               	goto	u3900
  6772     1434                     u3901:
  6773     1434  2C24               	goto	l2623
  6774     1435                     u3900:
  6775     1435  2C4F               	goto	l798
  6776     1436                     l2627:
  6777     1436  3001               	movlw	1
  6778     1437  07C7               	addwf	___xxtofl@exp,f
  6779     1438                     l2629:
  6780     1438  3001               	movlw	1
  6781     1439  07C8               	addwf	___xxtofl@arg,f
  6782     143A  3000               	movlw	0
  6783     143B  1803               	skipnc
  6784     143C  3001               	movlw	1
  6785     143D  07C9               	addwf	___xxtofl@arg+1,f
  6786     143E  3000               	movlw	0
  6787     143F  1803               	skipnc
  6788     1440  3001               	movlw	1
  6789     1441  07CA               	addwf	___xxtofl@arg+2,f
  6790     1442  3000               	movlw	0
  6791     1443  1803               	skipnc
  6792     1444  3001               	movlw	1
  6793     1445  07CB               	addwf	___xxtofl@arg+3,f
  6794     1446                     l2631:
  6795     1446  3001               	movlw	1
  6796     1447                     u3915:
  6797     1447  1003               	clrc
  6798     1448  0CCB               	rrf	___xxtofl@arg+3,f
  6799     1449  0CCA               	rrf	___xxtofl@arg+2,f
  6800     144A  0CC9               	rrf	___xxtofl@arg+1,f
  6801     144B  0CC8               	rrf	___xxtofl@arg,f
  6802     144C  3EFF               	addlw	-1
  6803     144D  1D03               	skipz
  6804     144E  2C47               	goto	u3915
  6805     144F                     l798:
  6806     144F  30FF               	movlw	255
  6807     1450  054B               	andwf	___xxtofl@arg+3,w
  6808     1451  1D03               	btfss	3,2
  6809     1452  2C54               	goto	u3921
  6810     1453  2C55               	goto	u3920
  6811     1454                     u3921:
  6812     1454  2C36               	goto	l2627
  6813     1455                     u3920:
  6814     1455  2C61               	goto	l2635
  6815     1456                     l2633:
  6816     1456  3001               	movlw	1
  6817     1457  02C7               	subwf	___xxtofl@exp,f
  6818     1458  3001               	movlw	1
  6819     1459  00C2               	movwf	??___xxtofl
  6820     145A                     u3935:
  6821     145A  1003               	clrc
  6822     145B  0DC8               	rlf	___xxtofl@arg,f
  6823     145C  0DC9               	rlf	___xxtofl@arg+1,f
  6824     145D  0DCA               	rlf	___xxtofl@arg+2,f
  6825     145E  0DCB               	rlf	___xxtofl@arg+3,f
  6826     145F  0BC2               	decfsz	??___xxtofl,f
  6827     1460  2C5A               	goto	u3935
  6828     1461                     l2635:
  6829     1461  1BCA               	btfsc	___xxtofl@arg+2,7
  6830     1462  2C64               	goto	u3941
  6831     1463  2C65               	goto	u3940
  6832     1464                     u3941:
  6833     1464  2C6B               	goto	l805
  6834     1465                     u3940:
  6835     1465                     l2637:
  6836     1465  3002               	movlw	2
  6837     1466  0247               	subwf	___xxtofl@exp,w
  6838     1467  1803               	skipnc
  6839     1468  2C6A               	goto	u3951
  6840     1469  2C6B               	goto	u3950
  6841     146A                     u3951:
  6842     146A  2C56               	goto	l2633
  6843     146B                     u3950:
  6844     146B                     l805:
  6845     146B  1847               	btfsc	___xxtofl@exp,0
  6846     146C  2C6E               	goto	u3961
  6847     146D  2C6F               	goto	u3960
  6848     146E                     u3961:
  6849     146E  2C77               	goto	l806
  6850     146F                     u3960:
  6851     146F                     l2639:
  6852     146F  30FF               	movlw	255
  6853     1470  05C8               	andwf	___xxtofl@arg,f
  6854     1471  30FF               	movlw	255
  6855     1472  05C9               	andwf	___xxtofl@arg+1,f
  6856     1473  307F               	movlw	127
  6857     1474  05CA               	andwf	___xxtofl@arg+2,f
  6858     1475  30FF               	movlw	255
  6859     1476  05CB               	andwf	___xxtofl@arg+3,f
  6860     1477                     l806:
  6861     1477  1003               	clrc
  6862     1478  0CC7               	rrf	___xxtofl@exp,f
  6863     1479                     l2641:
  6864     1479  0847               	movf	___xxtofl@exp,w
  6865     147A  00C2               	movwf	??___xxtofl
  6866     147B  01C3               	clrf	??___xxtofl+1
  6867     147C  01C4               	clrf	??___xxtofl+2
  6868     147D  01C5               	clrf	??___xxtofl+3
  6869     147E  3018               	movlw	24
  6870     147F                     u3975:
  6871     147F  1003               	clrc
  6872     1480  0DC2               	rlf	??___xxtofl,f
  6873     1481  0DC3               	rlf	??___xxtofl+1,f
  6874     1482  0DC4               	rlf	??___xxtofl+2,f
  6875     1483  0DC5               	rlf	??___xxtofl+3,f
  6876     1484                     u3970:
  6877     1484  3EFF               	addlw	-1
  6878     1485  1D03               	skipz
  6879     1486  2C7F               	goto	u3975
  6880     1487  0842               	movf	??___xxtofl,w
  6881     1488  04C8               	iorwf	___xxtofl@arg,f
  6882     1489  0843               	movf	??___xxtofl+1,w
  6883     148A  04C9               	iorwf	___xxtofl@arg+1,f
  6884     148B  0844               	movf	??___xxtofl+2,w
  6885     148C  04CA               	iorwf	___xxtofl@arg+2,f
  6886     148D  0845               	movf	??___xxtofl+3,w
  6887     148E  04CB               	iorwf	___xxtofl@arg+3,f
  6888     148F                     l2643:
  6889     148F  0846               	movf	___xxtofl@sign,w
  6890     1490  1903               	btfsc	3,2
  6891     1491  2C93               	goto	u3981
  6892     1492  2C94               	goto	u3980
  6893     1493                     u3981:
  6894     1493  2C99               	goto	l2649
  6895     1494                     u3980:
  6896     1494                     l2645:
  6897     1494  1FC1               	btfss	___xxtofl@val+3,7
  6898     1495  2C97               	goto	u3991
  6899     1496  2C98               	goto	u3990
  6900     1497                     u3991:
  6901     1497  2C99               	goto	l2649
  6902     1498                     u3990:
  6903     1498                     l2647:
  6904     1498  17CB               	bsf	___xxtofl@arg+3,7
  6905     1499                     l2649:
  6906     1499  084B               	movf	___xxtofl@arg+3,w
  6907     149A  00C1               	movwf	?___xxtofl+3
  6908     149B  084A               	movf	___xxtofl@arg+2,w
  6909     149C  00C0               	movwf	?___xxtofl+2
  6910     149D  0849               	movf	___xxtofl@arg+1,w
  6911     149E  00BF               	movwf	?___xxtofl+1
  6912     149F  0848               	movf	___xxtofl@arg,w
  6913     14A0  00BE               	movwf	?___xxtofl
  6914     14A1                     l794:
  6915     14A1  0008               	return
  6916     14A2                     __end_of___xxtofl:
  6917                           
  6918                           	psect	text17
  6919     0838                     __ptext17:	
  6920 ;; *************** function ___flmul *****************
  6921 ;; Defined at:
  6922 ;;		line 8 in file "C:\Program Files\Microchip\xc8\v3.10\pic\sources\c99\common\sprcmul.c"
  6923 ;; Parameters:    Size  Location     Type
  6924 ;;  b               4   52[BANK0 ] unsigned char 
  6925 ;;  a               4   56[BANK0 ] unsigned char 
  6926 ;; Auto vars:     Size  Location     Type
  6927 ;;  prod            4   72[BANK0 ] struct .
  6928 ;;  grs             4   66[BANK0 ] unsigned long 
  6929 ;;  temp            2   76[BANK0 ] struct .
  6930 ;;  bexp            1   71[BANK0 ] unsigned char 
  6931 ;;  aexp            1   70[BANK0 ] unsigned char 
  6932 ;;  sign            1   65[BANK0 ] unsigned char 
  6933 ;; Return value:  Size  Location     Type
  6934 ;;                  4   52[BANK0 ] unsigned char 
  6935 ;; Registers used:
  6936 ;;		wreg, status,2, status,0, pclath, btemp1, cstack
  6937 ;; Tracked objects:
  6938 ;;		On entry : 0/0
  6939 ;;		On exit  : 0/0
  6940 ;;		Unchanged: 0/0
  6941 ;; Data sizes:     COMMON   BANK0   BANK1   BANK3   BANK2
  6942 ;;      Params:         0       8       0       0       0
  6943 ;;      Locals:         0      13       0       0       0
  6944 ;;      Temps:          0       5       0       0       0
  6945 ;;      Totals:         0      26       0       0       0
  6946 ;;Total ram usage:       26 bytes
  6947 ;; Hardware stack levels used: 1
  6948 ;; Hardware stack levels required when called: 2
  6949 ;; This function calls:
  6950 ;;		__Umul8_16
  6951 ;; This function is called by:
  6952 ;;		_splitFloat
  6953 ;;		_getVoltage
  6954 ;;		_getAmps
  6955 ;; This function uses a non-reentrant model
  6956 ;;
  6957                           
  6958     0838                     ___flmul:	
  6959                           ;psect for function ___flmul
  6960                           
  6961     0838                     l2469:	
  6962                           ;incstack = 0
  6963                           ; Regs used in ___flmul: [wreg+status,2+status,0+pclath+btemp1+cstack]
  6964                           
  6965     0838  1283               	bcf	3,5	;RP0=0, select bank0
  6966     0839  1303               	bcf	3,6	;RP1=0, select bank0
  6967     083A  0857               	movf	___flmul@b+3,w
  6968     083B  00E1               	movwf	___flmul@sign
  6969     083C                     l2471:
  6970     083C  3080               	movlw	128
  6971     083D  05E1               	andwf	___flmul@sign,f
  6972     083E                     l2473:
  6973     083E  0857               	movf	___flmul@b+3,w
  6974     083F  00DC               	movwf	??___flmul
  6975     0840  075C               	addwf	??___flmul,w
  6976     0841  00E7               	movwf	___flmul@bexp
  6977     0842                     l2475:
  6978     0842  1FD6               	btfss	___flmul@b+2,7
  6979     0843  2845               	goto	u3491
  6980     0844  2846               	goto	u3490
  6981     0845                     u3491:
  6982     0845  2847               	goto	l2479
  6983     0846                     u3490:
  6984     0846                     l2477:
  6985     0846  1467               	bsf	___flmul@bexp,0
  6986     0847                     l2479:
  6987     0847  0867               	movf	___flmul@bexp,w
  6988     0848  1903               	btfsc	3,2
  6989     0849  284B               	goto	u3501
  6990     084A  284C               	goto	u3500
  6991     084B                     u3501:
  6992     084B  285B               	goto	l2487
  6993     084C                     u3500:
  6994     084C                     l2481:
  6995     084C  0A67               	incf	___flmul@bexp,w
  6996     084D  1D03               	btfss	3,2
  6997     084E  2850               	goto	u3511
  6998     084F  2851               	goto	u3510
  6999     0850                     u3511:
  7000     0850  2859               	goto	l2485
  7001     0851                     u3510:
  7002     0851                     l2483:
  7003     0851  3000               	movlw	0
  7004     0852  00D7               	movwf	___flmul@b+3
  7005     0853  3000               	movlw	0
  7006     0854  00D6               	movwf	___flmul@b+2
  7007     0855  3000               	movlw	0
  7008     0856  00D5               	movwf	___flmul@b+1
  7009     0857  3000               	movlw	0
  7010     0858  00D4               	movwf	___flmul@b
  7011     0859                     l2485:
  7012     0859  17D6               	bsf	___flmul@b+2,7
  7013     085A  2863               	goto	l2489
  7014     085B                     l2487:
  7015     085B  3000               	movlw	0
  7016     085C  00D7               	movwf	___flmul@b+3
  7017     085D  3000               	movlw	0
  7018     085E  00D6               	movwf	___flmul@b+2
  7019     085F  3000               	movlw	0
  7020     0860  00D5               	movwf	___flmul@b+1
  7021     0861  3000               	movlw	0
  7022     0862  00D4               	movwf	___flmul@b
  7023     0863                     l2489:
  7024     0863  085B               	movf	___flmul@a+3,w
  7025     0864  3980               	andlw	128
  7026     0865  06E1               	xorwf	___flmul@sign,f
  7027     0866                     l2491:
  7028     0866  085B               	movf	___flmul@a+3,w
  7029     0867  00DC               	movwf	??___flmul
  7030     0868  075C               	addwf	??___flmul,w
  7031     0869  00E6               	movwf	___flmul@aexp
  7032     086A                     l2493:
  7033     086A  1FDA               	btfss	___flmul@a+2,7
  7034     086B  286D               	goto	u3521
  7035     086C  286E               	goto	u3520
  7036     086D                     u3521:
  7037     086D  286F               	goto	l2497
  7038     086E                     u3520:
  7039     086E                     l2495:
  7040     086E  1466               	bsf	___flmul@aexp,0
  7041     086F                     l2497:
  7042     086F  0866               	movf	___flmul@aexp,w
  7043     0870  1903               	btfsc	3,2
  7044     0871  2873               	goto	u3531
  7045     0872  2874               	goto	u3530
  7046     0873                     u3531:
  7047     0873  2883               	goto	l2505
  7048     0874                     u3530:
  7049     0874                     l2499:
  7050     0874  0A66               	incf	___flmul@aexp,w
  7051     0875  1D03               	btfss	3,2
  7052     0876  2878               	goto	u3541
  7053     0877  2879               	goto	u3540
  7054     0878                     u3541:
  7055     0878  2881               	goto	l2503
  7056     0879                     u3540:
  7057     0879                     l2501:
  7058     0879  3000               	movlw	0
  7059     087A  00DB               	movwf	___flmul@a+3
  7060     087B  3000               	movlw	0
  7061     087C  00DA               	movwf	___flmul@a+2
  7062     087D  3000               	movlw	0
  7063     087E  00D9               	movwf	___flmul@a+1
  7064     087F  3000               	movlw	0
  7065     0880  00D8               	movwf	___flmul@a
  7066     0881                     l2503:
  7067     0881  17DA               	bsf	___flmul@a+2,7
  7068     0882  288B               	goto	l2507
  7069     0883                     l2505:
  7070     0883  3000               	movlw	0
  7071     0884  00DB               	movwf	___flmul@a+3
  7072     0885  3000               	movlw	0
  7073     0886  00DA               	movwf	___flmul@a+2
  7074     0887  3000               	movlw	0
  7075     0888  00D9               	movwf	___flmul@a+1
  7076     0889  3000               	movlw	0
  7077     088A  00D8               	movwf	___flmul@a
  7078     088B                     l2507:
  7079     088B  0866               	movf	___flmul@aexp,w
  7080     088C  1903               	btfsc	3,2
  7081     088D  288F               	goto	u3551
  7082     088E  2890               	goto	u3550
  7083     088F                     u3551:
  7084     088F  2895               	goto	l2511
  7085     0890                     u3550:
  7086     0890                     l2509:
  7087     0890  0867               	movf	___flmul@bexp,w
  7088     0891  1D03               	btfss	3,2
  7089     0892  2894               	goto	u3561
  7090     0893  2895               	goto	u3560
  7091     0894                     u3561:
  7092     0894  289E               	goto	l2515
  7093     0895                     u3560:
  7094     0895                     l2511:
  7095     0895  3000               	movlw	0
  7096     0896  00D7               	movwf	?___flmul+3
  7097     0897  3000               	movlw	0
  7098     0898  00D6               	movwf	?___flmul+2
  7099     0899  3000               	movlw	0
  7100     089A  00D5               	movwf	?___flmul+1
  7101     089B  3000               	movlw	0
  7102     089C  00D4               	movwf	?___flmul
  7103     089D  2B79               	goto	l748
  7104     089E                     l2515:
  7105     089E  0854               	movf	___flmul@b,w
  7106     089F  00A0               	movwf	__Umul8_16@multiplicand
  7107     08A0  085A               	movf	___flmul@a+2,w
  7108     08A1  160A  118A  217B  120A  158A  	fcall	__Umul8_16
  7109     08A6  1283               	bcf	3,5	;RP0=0, select bank0
  7110     08A7  1303               	bcf	3,6	;RP1=0, select bank0
  7111     08A8  0821               	movf	?__Umul8_16+1,w
  7112     08A9  00ED               	movwf	___flmul@temp+1
  7113     08AA  0820               	movf	?__Umul8_16,w
  7114     08AB  00EC               	movwf	___flmul@temp
  7115     08AC                     l2517:
  7116     08AC  086C               	movf	___flmul@temp,w
  7117     08AD  00DC               	movwf	??___flmul
  7118     08AE  01DD               	clrf	??___flmul+1
  7119     08AF  01DE               	clrf	??___flmul+2
  7120     08B0  01DF               	clrf	??___flmul+3
  7121     08B1  085F               	movf	??___flmul+3,w
  7122     08B2  00E5               	movwf	___flmul@grs+3
  7123     08B3  085E               	movf	??___flmul+2,w
  7124     08B4  00E4               	movwf	___flmul@grs+2
  7125     08B5  085D               	movf	??___flmul+1,w
  7126     08B6  00E3               	movwf	___flmul@grs+1
  7127     08B7  085C               	movf	??___flmul,w
  7128     08B8  00E2               	movwf	___flmul@grs
  7129     08B9                     l2519:
  7130     08B9  086D               	movf	___flmul@temp+1,w
  7131     08BA  00DC               	movwf	??___flmul
  7132     08BB  01DD               	clrf	??___flmul+1
  7133     08BC  01DE               	clrf	??___flmul+2
  7134     08BD  01DF               	clrf	??___flmul+3
  7135     08BE  085F               	movf	??___flmul+3,w
  7136     08BF  00EB               	movwf	___flmul@prod+3
  7137     08C0  085E               	movf	??___flmul+2,w
  7138     08C1  00EA               	movwf	___flmul@prod+2
  7139     08C2  085D               	movf	??___flmul+1,w
  7140     08C3  00E9               	movwf	___flmul@prod+1
  7141     08C4  085C               	movf	??___flmul,w
  7142     08C5  00E8               	movwf	___flmul@prod
  7143     08C6  0855               	movf	___flmul@b+1,w
  7144     08C7  00A0               	movwf	__Umul8_16@multiplicand
  7145     08C8  0859               	movf	___flmul@a+1,w
  7146     08C9  160A  118A  217B  120A  158A  	fcall	__Umul8_16
  7147     08CE  1283               	bcf	3,5	;RP0=0, select bank0
  7148     08CF  1303               	bcf	3,6	;RP1=0, select bank0
  7149     08D0  0821               	movf	?__Umul8_16+1,w
  7150     08D1  00ED               	movwf	___flmul@temp+1
  7151     08D2  0820               	movf	?__Umul8_16,w
  7152     08D3  00EC               	movwf	___flmul@temp
  7153     08D4                     l2521:
  7154     08D4  086C               	movf	___flmul@temp,w
  7155     08D5  00DC               	movwf	??___flmul
  7156     08D6  01DD               	clrf	??___flmul+1
  7157     08D7  01DE               	clrf	??___flmul+2
  7158     08D8  01DF               	clrf	??___flmul+3
  7159     08D9  085C               	movf	??___flmul,w
  7160     08DA  07E2               	addwf	___flmul@grs,f
  7161     08DB  085D               	movf	??___flmul+1,w
  7162     08DC  1103               	clrz
  7163     08DD  1803               	skipnc
  7164     08DE  3E01               	addlw	1
  7165     08DF  1903               	skipnz
  7166     08E0  28E2               	goto	u3571
  7167     08E1  07E3               	addwf	___flmul@grs+1,f
  7168     08E2                     u3571:
  7169     08E2  085E               	movf	??___flmul+2,w
  7170     08E3  1103               	clrz
  7171     08E4  1803               	skipnc
  7172     08E5  3E01               	addlw	1
  7173     08E6  1903               	skipnz
  7174     08E7  28E9               	goto	u3572
  7175     08E8  07E4               	addwf	___flmul@grs+2,f
  7176     08E9                     u3572:
  7177     08E9  085F               	movf	??___flmul+3,w
  7178     08EA  1103               	clrz
  7179     08EB  1803               	skipnc
  7180     08EC  3E01               	addlw	1
  7181     08ED  1903               	skipnz
  7182     08EE  28F0               	goto	u3573
  7183     08EF  07E5               	addwf	___flmul@grs+3,f
  7184     08F0                     u3573:
  7185     08F0                     l2523:
  7186     08F0  086D               	movf	___flmul@temp+1,w
  7187     08F1  00DC               	movwf	??___flmul
  7188     08F2  01DD               	clrf	??___flmul+1
  7189     08F3  01DE               	clrf	??___flmul+2
  7190     08F4  01DF               	clrf	??___flmul+3
  7191     08F5  085C               	movf	??___flmul,w
  7192     08F6  07E8               	addwf	___flmul@prod,f
  7193     08F7  085D               	movf	??___flmul+1,w
  7194     08F8  1103               	clrz
  7195     08F9  1803               	skipnc
  7196     08FA  3E01               	addlw	1
  7197     08FB  1903               	skipnz
  7198     08FC  28FE               	goto	u3581
  7199     08FD  07E9               	addwf	___flmul@prod+1,f
  7200     08FE                     u3581:
  7201     08FE  085E               	movf	??___flmul+2,w
  7202     08FF  1103               	clrz
  7203     0900  1803               	skipnc
  7204     0901  3E01               	addlw	1
  7205     0902  1903               	skipnz
  7206     0903  2905               	goto	u3582
  7207     0904  07EA               	addwf	___flmul@prod+2,f
  7208     0905                     u3582:
  7209     0905  085F               	movf	??___flmul+3,w
  7210     0906  1103               	clrz
  7211     0907  1803               	skipnc
  7212     0908  3E01               	addlw	1
  7213     0909  1903               	skipnz
  7214     090A  290C               	goto	u3583
  7215     090B  07EB               	addwf	___flmul@prod+3,f
  7216     090C                     u3583:
  7217     090C  0856               	movf	___flmul@b+2,w
  7218     090D  00A0               	movwf	__Umul8_16@multiplicand
  7219     090E  0858               	movf	___flmul@a,w
  7220     090F  160A  118A  217B  120A  158A  	fcall	__Umul8_16
  7221     0914  1283               	bcf	3,5	;RP0=0, select bank0
  7222     0915  1303               	bcf	3,6	;RP1=0, select bank0
  7223     0916  0821               	movf	?__Umul8_16+1,w
  7224     0917  00ED               	movwf	___flmul@temp+1
  7225     0918  0820               	movf	?__Umul8_16,w
  7226     0919  00EC               	movwf	___flmul@temp
  7227     091A                     l2525:
  7228     091A  086C               	movf	___flmul@temp,w
  7229     091B  00DC               	movwf	??___flmul
  7230     091C  01DD               	clrf	??___flmul+1
  7231     091D  01DE               	clrf	??___flmul+2
  7232     091E  01DF               	clrf	??___flmul+3
  7233     091F  085C               	movf	??___flmul,w
  7234     0920  07E2               	addwf	___flmul@grs,f
  7235     0921  085D               	movf	??___flmul+1,w
  7236     0922  1103               	clrz
  7237     0923  1803               	skipnc
  7238     0924  3E01               	addlw	1
  7239     0925  1903               	skipnz
  7240     0926  2928               	goto	u3591
  7241     0927  07E3               	addwf	___flmul@grs+1,f
  7242     0928                     u3591:
  7243     0928  085E               	movf	??___flmul+2,w
  7244     0929  1103               	clrz
  7245     092A  1803               	skipnc
  7246     092B  3E01               	addlw	1
  7247     092C  1903               	skipnz
  7248     092D  292F               	goto	u3592
  7249     092E  07E4               	addwf	___flmul@grs+2,f
  7250     092F                     u3592:
  7251     092F  085F               	movf	??___flmul+3,w
  7252     0930  1103               	clrz
  7253     0931  1803               	skipnc
  7254     0932  3E01               	addlw	1
  7255     0933  1903               	skipnz
  7256     0934  2936               	goto	u3593
  7257     0935  07E5               	addwf	___flmul@grs+3,f
  7258     0936                     u3593:
  7259     0936                     l2527:
  7260     0936  086D               	movf	___flmul@temp+1,w
  7261     0937  00DC               	movwf	??___flmul
  7262     0938  01DD               	clrf	??___flmul+1
  7263     0939  01DE               	clrf	??___flmul+2
  7264     093A  01DF               	clrf	??___flmul+3
  7265     093B  085C               	movf	??___flmul,w
  7266     093C  07E8               	addwf	___flmul@prod,f
  7267     093D  085D               	movf	??___flmul+1,w
  7268     093E  1103               	clrz
  7269     093F  1803               	skipnc
  7270     0940  3E01               	addlw	1
  7271     0941  1903               	skipnz
  7272     0942  2944               	goto	u3601
  7273     0943  07E9               	addwf	___flmul@prod+1,f
  7274     0944                     u3601:
  7275     0944  085E               	movf	??___flmul+2,w
  7276     0945  1103               	clrz
  7277     0946  1803               	skipnc
  7278     0947  3E01               	addlw	1
  7279     0948  1903               	skipnz
  7280     0949  294B               	goto	u3602
  7281     094A  07EA               	addwf	___flmul@prod+2,f
  7282     094B                     u3602:
  7283     094B  085F               	movf	??___flmul+3,w
  7284     094C  1103               	clrz
  7285     094D  1803               	skipnc
  7286     094E  3E01               	addlw	1
  7287     094F  1903               	skipnz
  7288     0950  2952               	goto	u3603
  7289     0951  07EB               	addwf	___flmul@prod+3,f
  7290     0952                     u3603:
  7291     0952                     l2529:
  7292     0952  3008               	movlw	8
  7293     0953  00DC               	movwf	??___flmul
  7294     0954                     u3615:
  7295     0954  1003               	clrc
  7296     0955  0DE2               	rlf	___flmul@grs,f
  7297     0956  0DE3               	rlf	___flmul@grs+1,f
  7298     0957  0DE4               	rlf	___flmul@grs+2,f
  7299     0958  0DE5               	rlf	___flmul@grs+3,f
  7300     0959  0BDC               	decfsz	??___flmul,f
  7301     095A  2954               	goto	u3615
  7302     095B                     l2531:
  7303     095B  0855               	movf	___flmul@b+1,w
  7304     095C  00A0               	movwf	__Umul8_16@multiplicand
  7305     095D  0858               	movf	___flmul@a,w
  7306     095E  160A  118A  217B  120A  158A  	fcall	__Umul8_16
  7307     0963  1283               	bcf	3,5	;RP0=0, select bank0
  7308     0964  1303               	bcf	3,6	;RP1=0, select bank0
  7309     0965  0821               	movf	?__Umul8_16+1,w
  7310     0966  00ED               	movwf	___flmul@temp+1
  7311     0967  0820               	movf	?__Umul8_16,w
  7312     0968  00EC               	movwf	___flmul@temp
  7313     0969                     l2533:
  7314     0969  086C               	movf	___flmul@temp,w
  7315     096A  00DC               	movwf	??___flmul
  7316     096B  086D               	movf	___flmul@temp+1,w
  7317     096C  00DD               	movwf	??___flmul+1
  7318     096D  01DE               	clrf	??___flmul+2
  7319     096E  01DF               	clrf	??___flmul+3
  7320     096F  085C               	movf	??___flmul,w
  7321     0970  07E2               	addwf	___flmul@grs,f
  7322     0971  085D               	movf	??___flmul+1,w
  7323     0972  1103               	clrz
  7324     0973  1803               	skipnc
  7325     0974  3E01               	addlw	1
  7326     0975  1903               	skipnz
  7327     0976  2978               	goto	u3621
  7328     0977  07E3               	addwf	___flmul@grs+1,f
  7329     0978                     u3621:
  7330     0978  085E               	movf	??___flmul+2,w
  7331     0979  1103               	clrz
  7332     097A  1803               	skipnc
  7333     097B  3E01               	addlw	1
  7334     097C  1903               	skipnz
  7335     097D  297F               	goto	u3622
  7336     097E  07E4               	addwf	___flmul@grs+2,f
  7337     097F                     u3622:
  7338     097F  085F               	movf	??___flmul+3,w
  7339     0980  1103               	clrz
  7340     0981  1803               	skipnc
  7341     0982  3E01               	addlw	1
  7342     0983  1903               	skipnz
  7343     0984  2986               	goto	u3623
  7344     0985  07E5               	addwf	___flmul@grs+3,f
  7345     0986                     u3623:
  7346     0986                     l2535:
  7347     0986  0854               	movf	___flmul@b,w
  7348     0987  00A0               	movwf	__Umul8_16@multiplicand
  7349     0988  0859               	movf	___flmul@a+1,w
  7350     0989  160A  118A  217B  120A  158A  	fcall	__Umul8_16
  7351     098E  1283               	bcf	3,5	;RP0=0, select bank0
  7352     098F  1303               	bcf	3,6	;RP1=0, select bank0
  7353     0990  0821               	movf	?__Umul8_16+1,w
  7354     0991  00ED               	movwf	___flmul@temp+1
  7355     0992  0820               	movf	?__Umul8_16,w
  7356     0993  00EC               	movwf	___flmul@temp
  7357     0994                     l2537:
  7358     0994  086C               	movf	___flmul@temp,w
  7359     0995  00DC               	movwf	??___flmul
  7360     0996  086D               	movf	___flmul@temp+1,w
  7361     0997  00DD               	movwf	??___flmul+1
  7362     0998  01DE               	clrf	??___flmul+2
  7363     0999  01DF               	clrf	??___flmul+3
  7364     099A  085C               	movf	??___flmul,w
  7365     099B  07E2               	addwf	___flmul@grs,f
  7366     099C  085D               	movf	??___flmul+1,w
  7367     099D  1103               	clrz
  7368     099E  1803               	skipnc
  7369     099F  3E01               	addlw	1
  7370     09A0  1903               	skipnz
  7371     09A1  29A3               	goto	u3631
  7372     09A2  07E3               	addwf	___flmul@grs+1,f
  7373     09A3                     u3631:
  7374     09A3  085E               	movf	??___flmul+2,w
  7375     09A4  1103               	clrz
  7376     09A5  1803               	skipnc
  7377     09A6  3E01               	addlw	1
  7378     09A7  1903               	skipnz
  7379     09A8  29AA               	goto	u3632
  7380     09A9  07E4               	addwf	___flmul@grs+2,f
  7381     09AA                     u3632:
  7382     09AA  085F               	movf	??___flmul+3,w
  7383     09AB  1103               	clrz
  7384     09AC  1803               	skipnc
  7385     09AD  3E01               	addlw	1
  7386     09AE  1903               	skipnz
  7387     09AF  29B1               	goto	u3633
  7388     09B0  07E5               	addwf	___flmul@grs+3,f
  7389     09B1                     u3633:
  7390     09B1                     l2539:
  7391     09B1  3008               	movlw	8
  7392     09B2  00DC               	movwf	??___flmul
  7393     09B3                     u3645:
  7394     09B3  1003               	clrc
  7395     09B4  0DE2               	rlf	___flmul@grs,f
  7396     09B5  0DE3               	rlf	___flmul@grs+1,f
  7397     09B6  0DE4               	rlf	___flmul@grs+2,f
  7398     09B7  0DE5               	rlf	___flmul@grs+3,f
  7399     09B8  0BDC               	decfsz	??___flmul,f
  7400     09B9  29B3               	goto	u3645
  7401     09BA  0854               	movf	___flmul@b,w
  7402     09BB  00A0               	movwf	__Umul8_16@multiplicand
  7403     09BC  0858               	movf	___flmul@a,w
  7404     09BD  160A  118A  217B  120A  158A  	fcall	__Umul8_16
  7405     09C2  1283               	bcf	3,5	;RP0=0, select bank0
  7406     09C3  1303               	bcf	3,6	;RP1=0, select bank0
  7407     09C4  0821               	movf	?__Umul8_16+1,w
  7408     09C5  00ED               	movwf	___flmul@temp+1
  7409     09C6  0820               	movf	?__Umul8_16,w
  7410     09C7  00EC               	movwf	___flmul@temp
  7411     09C8                     l2541:
  7412     09C8  086C               	movf	___flmul@temp,w
  7413     09C9  00DC               	movwf	??___flmul
  7414     09CA  086D               	movf	___flmul@temp+1,w
  7415     09CB  00DD               	movwf	??___flmul+1
  7416     09CC  01DE               	clrf	??___flmul+2
  7417     09CD  01DF               	clrf	??___flmul+3
  7418     09CE  085C               	movf	??___flmul,w
  7419     09CF  07E2               	addwf	___flmul@grs,f
  7420     09D0  085D               	movf	??___flmul+1,w
  7421     09D1  1103               	clrz
  7422     09D2  1803               	skipnc
  7423     09D3  3E01               	addlw	1
  7424     09D4  1903               	skipnz
  7425     09D5  29D7               	goto	u3651
  7426     09D6  07E3               	addwf	___flmul@grs+1,f
  7427     09D7                     u3651:
  7428     09D7  085E               	movf	??___flmul+2,w
  7429     09D8  1103               	clrz
  7430     09D9  1803               	skipnc
  7431     09DA  3E01               	addlw	1
  7432     09DB  1903               	skipnz
  7433     09DC  29DE               	goto	u3652
  7434     09DD  07E4               	addwf	___flmul@grs+2,f
  7435     09DE                     u3652:
  7436     09DE  085F               	movf	??___flmul+3,w
  7437     09DF  1103               	clrz
  7438     09E0  1803               	skipnc
  7439     09E1  3E01               	addlw	1
  7440     09E2  1903               	skipnz
  7441     09E3  29E5               	goto	u3653
  7442     09E4  07E5               	addwf	___flmul@grs+3,f
  7443     09E5                     u3653:
  7444     09E5                     l2543:
  7445     09E5  0855               	movf	___flmul@b+1,w
  7446     09E6  00A0               	movwf	__Umul8_16@multiplicand
  7447     09E7  085A               	movf	___flmul@a+2,w
  7448     09E8  160A  118A  217B  120A  158A  	fcall	__Umul8_16
  7449     09ED  1283               	bcf	3,5	;RP0=0, select bank0
  7450     09EE  1303               	bcf	3,6	;RP1=0, select bank0
  7451     09EF  0821               	movf	?__Umul8_16+1,w
  7452     09F0  00ED               	movwf	___flmul@temp+1
  7453     09F1  0820               	movf	?__Umul8_16,w
  7454     09F2  00EC               	movwf	___flmul@temp
  7455     09F3  086C               	movf	___flmul@temp,w
  7456     09F4  00DC               	movwf	??___flmul
  7457     09F5  086D               	movf	___flmul@temp+1,w
  7458     09F6  00DD               	movwf	??___flmul+1
  7459     09F7  01DE               	clrf	??___flmul+2
  7460     09F8  01DF               	clrf	??___flmul+3
  7461     09F9  085C               	movf	??___flmul,w
  7462     09FA  07E8               	addwf	___flmul@prod,f
  7463     09FB  085D               	movf	??___flmul+1,w
  7464     09FC  1103               	clrz
  7465     09FD  1803               	skipnc
  7466     09FE  3E01               	addlw	1
  7467     09FF  1903               	skipnz
  7468     0A00  2A02               	goto	u3661
  7469     0A01  07E9               	addwf	___flmul@prod+1,f
  7470     0A02                     u3661:
  7471     0A02  085E               	movf	??___flmul+2,w
  7472     0A03  1103               	clrz
  7473     0A04  1803               	skipnc
  7474     0A05  3E01               	addlw	1
  7475     0A06  1903               	skipnz
  7476     0A07  2A09               	goto	u3662
  7477     0A08  07EA               	addwf	___flmul@prod+2,f
  7478     0A09                     u3662:
  7479     0A09  085F               	movf	??___flmul+3,w
  7480     0A0A  1103               	clrz
  7481     0A0B  1803               	skipnc
  7482     0A0C  3E01               	addlw	1
  7483     0A0D  1903               	skipnz
  7484     0A0E  2A10               	goto	u3663
  7485     0A0F  07EB               	addwf	___flmul@prod+3,f
  7486     0A10                     u3663:
  7487     0A10                     l2545:
  7488     0A10  0856               	movf	___flmul@b+2,w
  7489     0A11  00A0               	movwf	__Umul8_16@multiplicand
  7490     0A12  0859               	movf	___flmul@a+1,w
  7491     0A13  160A  118A  217B  120A  158A  	fcall	__Umul8_16
  7492     0A18  1283               	bcf	3,5	;RP0=0, select bank0
  7493     0A19  1303               	bcf	3,6	;RP1=0, select bank0
  7494     0A1A  0821               	movf	?__Umul8_16+1,w
  7495     0A1B  00ED               	movwf	___flmul@temp+1
  7496     0A1C  0820               	movf	?__Umul8_16,w
  7497     0A1D  00EC               	movwf	___flmul@temp
  7498     0A1E                     l2547:
  7499     0A1E  086C               	movf	___flmul@temp,w
  7500     0A1F  00DC               	movwf	??___flmul
  7501     0A20  086D               	movf	___flmul@temp+1,w
  7502     0A21  00DD               	movwf	??___flmul+1
  7503     0A22  01DE               	clrf	??___flmul+2
  7504     0A23  01DF               	clrf	??___flmul+3
  7505     0A24  085C               	movf	??___flmul,w
  7506     0A25  07E8               	addwf	___flmul@prod,f
  7507     0A26  085D               	movf	??___flmul+1,w
  7508     0A27  1103               	clrz
  7509     0A28  1803               	skipnc
  7510     0A29  3E01               	addlw	1
  7511     0A2A  1903               	skipnz
  7512     0A2B  2A2D               	goto	u3671
  7513     0A2C  07E9               	addwf	___flmul@prod+1,f
  7514     0A2D                     u3671:
  7515     0A2D  085E               	movf	??___flmul+2,w
  7516     0A2E  1103               	clrz
  7517     0A2F  1803               	skipnc
  7518     0A30  3E01               	addlw	1
  7519     0A31  1903               	skipnz
  7520     0A32  2A34               	goto	u3672
  7521     0A33  07EA               	addwf	___flmul@prod+2,f
  7522     0A34                     u3672:
  7523     0A34  085F               	movf	??___flmul+3,w
  7524     0A35  1103               	clrz
  7525     0A36  1803               	skipnc
  7526     0A37  3E01               	addlw	1
  7527     0A38  1903               	skipnz
  7528     0A39  2A3B               	goto	u3673
  7529     0A3A  07EB               	addwf	___flmul@prod+3,f
  7530     0A3B                     u3673:
  7531     0A3B  0856               	movf	___flmul@b+2,w
  7532     0A3C  00A0               	movwf	__Umul8_16@multiplicand
  7533     0A3D  085A               	movf	___flmul@a+2,w
  7534     0A3E  160A  118A  217B  120A  158A  	fcall	__Umul8_16
  7535     0A43  1283               	bcf	3,5	;RP0=0, select bank0
  7536     0A44  1303               	bcf	3,6	;RP1=0, select bank0
  7537     0A45  0821               	movf	?__Umul8_16+1,w
  7538     0A46  00ED               	movwf	___flmul@temp+1
  7539     0A47  0820               	movf	?__Umul8_16,w
  7540     0A48  00EC               	movwf	___flmul@temp
  7541     0A49                     l2549:
  7542     0A49  086C               	movf	___flmul@temp,w
  7543     0A4A  00DC               	movwf	??___flmul
  7544     0A4B  086D               	movf	___flmul@temp+1,w
  7545     0A4C  00DD               	movwf	??___flmul+1
  7546     0A4D  01DE               	clrf	??___flmul+2
  7547     0A4E  01DF               	clrf	??___flmul+3
  7548     0A4F  3008               	movlw	8
  7549     0A50                     u3685:
  7550     0A50  1003               	clrc
  7551     0A51  0DDC               	rlf	??___flmul,f
  7552     0A52  0DDD               	rlf	??___flmul+1,f
  7553     0A53  0DDE               	rlf	??___flmul+2,f
  7554     0A54  0DDF               	rlf	??___flmul+3,f
  7555     0A55                     u3680:
  7556     0A55  3EFF               	addlw	-1
  7557     0A56  1D03               	skipz
  7558     0A57  2A50               	goto	u3685
  7559     0A58  085C               	movf	??___flmul,w
  7560     0A59  07E8               	addwf	___flmul@prod,f
  7561     0A5A  085D               	movf	??___flmul+1,w
  7562     0A5B  1103               	clrz
  7563     0A5C  1803               	skipnc
  7564     0A5D  3E01               	addlw	1
  7565     0A5E  1903               	skipnz
  7566     0A5F  2A61               	goto	u3691
  7567     0A60  07E9               	addwf	___flmul@prod+1,f
  7568     0A61                     u3691:
  7569     0A61  085E               	movf	??___flmul+2,w
  7570     0A62  1103               	clrz
  7571     0A63  1803               	skipnc
  7572     0A64  3E01               	addlw	1
  7573     0A65  1903               	skipnz
  7574     0A66  2A68               	goto	u3692
  7575     0A67  07EA               	addwf	___flmul@prod+2,f
  7576     0A68                     u3692:
  7577     0A68  085F               	movf	??___flmul+3,w
  7578     0A69  1103               	clrz
  7579     0A6A  1803               	skipnc
  7580     0A6B  3E01               	addlw	1
  7581     0A6C  1903               	skipnz
  7582     0A6D  2A6F               	goto	u3693
  7583     0A6E  07EB               	addwf	___flmul@prod+3,f
  7584     0A6F                     u3693:
  7585     0A6F                     l2551:
  7586     0A6F  0862               	movf	___flmul@grs,w
  7587     0A70  00DC               	movwf	??___flmul
  7588     0A71  0863               	movf	___flmul@grs+1,w
  7589     0A72  00DD               	movwf	??___flmul+1
  7590     0A73  0864               	movf	___flmul@grs+2,w
  7591     0A74  00DE               	movwf	??___flmul+2
  7592     0A75  0865               	movf	___flmul@grs+3,w
  7593     0A76  00DF               	movwf	??___flmul+3
  7594     0A77  3018               	movlw	24
  7595     0A78                     u3705:
  7596     0A78  1003               	clrc
  7597     0A79  0CDF               	rrf	??___flmul+3,f
  7598     0A7A  0CDE               	rrf	??___flmul+2,f
  7599     0A7B  0CDD               	rrf	??___flmul+1,f
  7600     0A7C  0CDC               	rrf	??___flmul,f
  7601     0A7D                     u3700:
  7602     0A7D  3EFF               	addlw	-1
  7603     0A7E  1D03               	skipz
  7604     0A7F  2A78               	goto	u3705
  7605     0A80  085C               	movf	??___flmul,w
  7606     0A81  07E8               	addwf	___flmul@prod,f
  7607     0A82  085D               	movf	??___flmul+1,w
  7608     0A83  1103               	clrz
  7609     0A84  1803               	skipnc
  7610     0A85  3E01               	addlw	1
  7611     0A86  1903               	skipnz
  7612     0A87  2A89               	goto	u3711
  7613     0A88  07E9               	addwf	___flmul@prod+1,f
  7614     0A89                     u3711:
  7615     0A89  085E               	movf	??___flmul+2,w
  7616     0A8A  1103               	clrz
  7617     0A8B  1803               	skipnc
  7618     0A8C  3E01               	addlw	1
  7619     0A8D  1903               	skipnz
  7620     0A8E  2A90               	goto	u3712
  7621     0A8F  07EA               	addwf	___flmul@prod+2,f
  7622     0A90                     u3712:
  7623     0A90  085F               	movf	??___flmul+3,w
  7624     0A91  1103               	clrz
  7625     0A92  1803               	skipnc
  7626     0A93  3E01               	addlw	1
  7627     0A94  1903               	skipnz
  7628     0A95  2A97               	goto	u3713
  7629     0A96  07EB               	addwf	___flmul@prod+3,f
  7630     0A97                     u3713:
  7631     0A97                     l2553:
  7632     0A97  3008               	movlw	8
  7633     0A98  00DC               	movwf	??___flmul
  7634     0A99                     u3725:
  7635     0A99  1003               	clrc
  7636     0A9A  0DE2               	rlf	___flmul@grs,f
  7637     0A9B  0DE3               	rlf	___flmul@grs+1,f
  7638     0A9C  0DE4               	rlf	___flmul@grs+2,f
  7639     0A9D  0DE5               	rlf	___flmul@grs+3,f
  7640     0A9E  0BDC               	decfsz	??___flmul,f
  7641     0A9F  2A99               	goto	u3725
  7642     0AA0                     l2555:
  7643     0AA0  0867               	movf	___flmul@bexp,w
  7644     0AA1  0766               	addwf	___flmul@aexp,w
  7645     0AA2  00DC               	movwf	??___flmul
  7646     0AA3  01DD               	clrf	??___flmul+1
  7647     0AA4  0DDD               	rlf	??___flmul+1,f
  7648     0AA5  085C               	movf	??___flmul,w
  7649     0AA6  3E82               	addlw	130
  7650     0AA7  00EC               	movwf	___flmul@temp
  7651     0AA8  085D               	movf	??___flmul+1,w
  7652     0AA9  1803               	skipnc
  7653     0AAA  3E01               	addlw	1
  7654     0AAB  3EFF               	addlw	255
  7655     0AAC  00ED               	movwf	___flmul@temp+1
  7656     0AAD  2ACB               	goto	l2567
  7657     0AAE                     l2557:
  7658     0AAE  3001               	movlw	1
  7659     0AAF  00DC               	movwf	??___flmul
  7660     0AB0                     u3735:
  7661     0AB0  1003               	clrc
  7662     0AB1  0DE8               	rlf	___flmul@prod,f
  7663     0AB2  0DE9               	rlf	___flmul@prod+1,f
  7664     0AB3  0DEA               	rlf	___flmul@prod+2,f
  7665     0AB4  0DEB               	rlf	___flmul@prod+3,f
  7666     0AB5  0BDC               	decfsz	??___flmul,f
  7667     0AB6  2AB0               	goto	u3735
  7668     0AB7                     l2559:
  7669     0AB7  1FE5               	btfss	___flmul@grs+3,7
  7670     0AB8  2ABA               	goto	u3741
  7671     0AB9  2ABB               	goto	u3740
  7672     0ABA                     u3741:
  7673     0ABA  2ABC               	goto	l2563
  7674     0ABB                     u3740:
  7675     0ABB                     l2561:
  7676     0ABB  1468               	bsf	___flmul@prod,0
  7677     0ABC                     l2563:
  7678     0ABC  3001               	movlw	1
  7679     0ABD  00DC               	movwf	??___flmul
  7680     0ABE                     u3755:
  7681     0ABE  1003               	clrc
  7682     0ABF  0DE2               	rlf	___flmul@grs,f
  7683     0AC0  0DE3               	rlf	___flmul@grs+1,f
  7684     0AC1  0DE4               	rlf	___flmul@grs+2,f
  7685     0AC2  0DE5               	rlf	___flmul@grs+3,f
  7686     0AC3  0BDC               	decfsz	??___flmul,f
  7687     0AC4  2ABE               	goto	u3755
  7688     0AC5                     l2565:
  7689     0AC5  30FF               	movlw	255
  7690     0AC6  07EC               	addwf	___flmul@temp,f
  7691     0AC7  1803               	skipnc
  7692     0AC8  0AED               	incf	___flmul@temp+1,f
  7693     0AC9  30FF               	movlw	255
  7694     0ACA  07ED               	addwf	___flmul@temp+1,f
  7695     0ACB                     l2567:
  7696     0ACB  1FEA               	btfss	___flmul@prod+2,7
  7697     0ACC  2ACE               	goto	u3761
  7698     0ACD  2ACF               	goto	u3760
  7699     0ACE                     u3761:
  7700     0ACE  2AAE               	goto	l2557
  7701     0ACF                     u3760:
  7702     0ACF                     l2569:
  7703     0ACF  01E6               	clrf	___flmul@aexp
  7704     0AD0                     l2571:
  7705     0AD0  1FE5               	btfss	___flmul@grs+3,7
  7706     0AD1  2AD3               	goto	u3771
  7707     0AD2  2AD4               	goto	u3770
  7708     0AD3                     u3771:
  7709     0AD3  2AF0               	goto	l2579
  7710     0AD4                     u3770:
  7711     0AD4                     l2573:
  7712     0AD4  30FF               	movlw	255
  7713     0AD5  0562               	andwf	___flmul@grs,w
  7714     0AD6  00DC               	movwf	??___flmul
  7715     0AD7  30FF               	movlw	255
  7716     0AD8  0563               	andwf	___flmul@grs+1,w
  7717     0AD9  00DD               	movwf	??___flmul+1
  7718     0ADA  30FF               	movlw	255
  7719     0ADB  0564               	andwf	___flmul@grs+2,w
  7720     0ADC  00DE               	movwf	??___flmul+2
  7721     0ADD  307F               	movlw	127
  7722     0ADE  0565               	andwf	___flmul@grs+3,w
  7723     0ADF  00DF               	movwf	??___flmul+3
  7724     0AE0  085F               	movf	??___flmul+3,w
  7725     0AE1  045E               	iorwf	??___flmul+2,w
  7726     0AE2  045D               	iorwf	??___flmul+1,w
  7727     0AE3  045C               	iorwf	??___flmul,w
  7728     0AE4  1903               	skipnz
  7729     0AE5  2AE7               	goto	u3781
  7730     0AE6  2AE8               	goto	u3780
  7731     0AE7                     u3781:
  7732     0AE7  2AEB               	goto	l754
  7733     0AE8                     u3780:
  7734     0AE8                     l2575:
  7735     0AE8  3001               	movlw	1
  7736     0AE9  00E6               	movwf	___flmul@aexp
  7737     0AEA  2AF0               	goto	l2579
  7738     0AEB                     l754:
  7739     0AEB  1C68               	btfss	___flmul@prod,0
  7740     0AEC  2AEE               	goto	u3791
  7741     0AED  2AEF               	goto	u3790
  7742     0AEE                     u3791:
  7743     0AEE  2AF0               	goto	l2579
  7744     0AEF                     u3790:
  7745     0AEF  2AE8               	goto	l2575
  7746     0AF0                     l2579:
  7747     0AF0  0866               	movf	___flmul@aexp,w
  7748     0AF1  1903               	btfsc	3,2
  7749     0AF2  2AF4               	goto	u3801
  7750     0AF3  2AF5               	goto	u3800
  7751     0AF4                     u3801:
  7752     0AF4  2B26               	goto	l2589
  7753     0AF5                     u3800:
  7754     0AF5                     l2581:
  7755     0AF5  3001               	movlw	1
  7756     0AF6  07E8               	addwf	___flmul@prod,f
  7757     0AF7  3000               	movlw	0
  7758     0AF8  1803               	skipnc
  7759     0AF9  3001               	movlw	1
  7760     0AFA  07E9               	addwf	___flmul@prod+1,f
  7761     0AFB  3000               	movlw	0
  7762     0AFC  1803               	skipnc
  7763     0AFD  3001               	movlw	1
  7764     0AFE  07EA               	addwf	___flmul@prod+2,f
  7765     0AFF  3000               	movlw	0
  7766     0B00  1803               	skipnc
  7767     0B01  3001               	movlw	1
  7768     0B02  07EB               	addwf	___flmul@prod+3,f
  7769     0B03                     l2583:
  7770     0B03  1C6B               	btfss	___flmul@prod+3,0
  7771     0B04  2B06               	goto	u3811
  7772     0B05  2B07               	goto	u3810
  7773     0B06                     u3811:
  7774     0B06  2B26               	goto	l2589
  7775     0B07                     u3810:
  7776     0B07                     l2585:
  7777     0B07  0868               	movf	___flmul@prod,w
  7778     0B08  00DC               	movwf	??___flmul
  7779     0B09  0869               	movf	___flmul@prod+1,w
  7780     0B0A  00DD               	movwf	??___flmul+1
  7781     0B0B  086A               	movf	___flmul@prod+2,w
  7782     0B0C  00DE               	movwf	??___flmul+2
  7783     0B0D  086B               	movf	___flmul@prod+3,w
  7784     0B0E  00DF               	movwf	??___flmul+3
  7785     0B0F  3001               	movlw	1
  7786     0B10  00E0               	movwf	??___flmul+4
  7787     0B11                     u3825:
  7788     0B11  0D5F               	rlf	??___flmul+3,w
  7789     0B12  0CDF               	rrf	??___flmul+3,f
  7790     0B13  0CDE               	rrf	??___flmul+2,f
  7791     0B14  0CDD               	rrf	??___flmul+1,f
  7792     0B15  0CDC               	rrf	??___flmul,f
  7793     0B16                     u3820:
  7794     0B16  0BE0               	decfsz	??___flmul+4,f
  7795     0B17  2B11               	goto	u3825
  7796     0B18  085F               	movf	??___flmul+3,w
  7797     0B19  00EB               	movwf	___flmul@prod+3
  7798     0B1A  085E               	movf	??___flmul+2,w
  7799     0B1B  00EA               	movwf	___flmul@prod+2
  7800     0B1C  085D               	movf	??___flmul+1,w
  7801     0B1D  00E9               	movwf	___flmul@prod+1
  7802     0B1E  085C               	movf	??___flmul,w
  7803     0B1F  00E8               	movwf	___flmul@prod
  7804     0B20                     l2587:
  7805     0B20  3001               	movlw	1
  7806     0B21  07EC               	addwf	___flmul@temp,f
  7807     0B22  1803               	skipnc
  7808     0B23  0AED               	incf	___flmul@temp+1,f
  7809     0B24  3000               	movlw	0
  7810     0B25  07ED               	addwf	___flmul@temp+1,f
  7811     0B26                     l2589:
  7812     0B26  086D               	movf	___flmul@temp+1,w
  7813     0B27  3A80               	xorlw	128
  7814     0B28  00FF               	movwf	btemp1
  7815     0B29  3080               	movlw	128
  7816     0B2A  027F               	subwf	btemp1,w
  7817     0B2B  1D03               	skipz
  7818     0B2C  2B2F               	goto	u3835
  7819     0B2D  30FF               	movlw	255
  7820     0B2E  026C               	subwf	___flmul@temp,w
  7821     0B2F                     u3835:
  7822     0B2F  1C03               	skipc
  7823     0B30  2B32               	goto	u3831
  7824     0B31  2B33               	goto	u3830
  7825     0B32                     u3831:
  7826     0B32  2B3E               	goto	l2593
  7827     0B33                     u3830:
  7828     0B33                     l2591:
  7829     0B33  307F               	movlw	127
  7830     0B34  1283               	bcf	3,5	;RP0=0, select bank0
  7831     0B35  1303               	bcf	3,6	;RP1=0, select bank0
  7832     0B36  00EB               	movwf	___flmul@prod+3
  7833     0B37  3080               	movlw	128
  7834     0B38  00EA               	movwf	___flmul@prod+2
  7835     0B39  3000               	movlw	0
  7836     0B3A  00E9               	movwf	___flmul@prod+1
  7837     0B3B  3000               	movlw	0
  7838     0B3C  00E8               	movwf	___flmul@prod
  7839     0B3D  2B6F               	goto	l760
  7840     0B3E                     l2593:
  7841     0B3E  1283               	bcf	3,5	;RP0=0, select bank0
  7842     0B3F  1303               	bcf	3,6	;RP1=0, select bank0
  7843     0B40  086D               	movf	___flmul@temp+1,w
  7844     0B41  3A80               	xorlw	128
  7845     0B42  00FF               	movwf	btemp1
  7846     0B43  3080               	movlw	128
  7847     0B44  027F               	subwf	btemp1,w
  7848     0B45  1D03               	skipz
  7849     0B46  2B49               	goto	u3845
  7850     0B47  3001               	movlw	1
  7851     0B48  026C               	subwf	___flmul@temp,w
  7852     0B49                     u3845:
  7853     0B49  1803               	skipnc
  7854     0B4A  2B4C               	goto	u3841
  7855     0B4B  2B4D               	goto	u3840
  7856     0B4C                     u3841:
  7857     0B4C  2B59               	goto	l2599
  7858     0B4D                     u3840:
  7859     0B4D                     l2595:
  7860     0B4D  3000               	movlw	0
  7861     0B4E  1283               	bcf	3,5	;RP0=0, select bank0
  7862     0B4F  1303               	bcf	3,6	;RP1=0, select bank0
  7863     0B50  00EB               	movwf	___flmul@prod+3
  7864     0B51  3000               	movlw	0
  7865     0B52  00EA               	movwf	___flmul@prod+2
  7866     0B53  3000               	movlw	0
  7867     0B54  00E9               	movwf	___flmul@prod+1
  7868     0B55  3000               	movlw	0
  7869     0B56  00E8               	movwf	___flmul@prod
  7870     0B57                     l2597:
  7871     0B57  01E1               	clrf	___flmul@sign
  7872     0B58  2B6F               	goto	l760
  7873     0B59                     l2599:
  7874     0B59  1283               	bcf	3,5	;RP0=0, select bank0
  7875     0B5A  1303               	bcf	3,6	;RP1=0, select bank0
  7876     0B5B  086C               	movf	___flmul@temp,w
  7877     0B5C  00E7               	movwf	___flmul@bexp
  7878     0B5D  30FF               	movlw	255
  7879     0B5E  05E8               	andwf	___flmul@prod,f
  7880     0B5F  30FF               	movlw	255
  7881     0B60  05E9               	andwf	___flmul@prod+1,f
  7882     0B61  307F               	movlw	127
  7883     0B62  05EA               	andwf	___flmul@prod+2,f
  7884     0B63  3000               	movlw	0
  7885     0B64  05EB               	andwf	___flmul@prod+3,f
  7886     0B65                     l2601:
  7887     0B65  1C67               	btfss	___flmul@bexp,0
  7888     0B66  2B68               	goto	u3851
  7889     0B67  2B69               	goto	u3850
  7890     0B68                     u3851:
  7891     0B68  2B6A               	goto	l2605
  7892     0B69                     u3850:
  7893     0B69                     l2603:
  7894     0B69  17EA               	bsf	___flmul@prod+2,7
  7895     0B6A                     l2605:
  7896     0B6A  0867               	movf	___flmul@bexp,w
  7897     0B6B  00DC               	movwf	??___flmul
  7898     0B6C  1003               	clrc
  7899     0B6D  0C5C               	rrf	??___flmul,w
  7900     0B6E  00EB               	movwf	___flmul@prod+3
  7901     0B6F                     l760:
  7902     0B6F  0861               	movf	___flmul@sign,w
  7903     0B70  04EB               	iorwf	___flmul@prod+3,f
  7904     0B71                     l2607:
  7905     0B71  086B               	movf	___flmul@prod+3,w
  7906     0B72  00D7               	movwf	?___flmul+3
  7907     0B73  086A               	movf	___flmul@prod+2,w
  7908     0B74  00D6               	movwf	?___flmul+2
  7909     0B75  0869               	movf	___flmul@prod+1,w
  7910     0B76  00D5               	movwf	?___flmul+1
  7911     0B77  0868               	movf	___flmul@prod,w
  7912     0B78  00D4               	movwf	?___flmul
  7913     0B79                     l748:
  7914     0B79  0008               	return
  7915     0B7A                     __end_of___flmul:
  7916                           
  7917                           	psect	text18
  7918     117B                     __ptext18:	
  7919 ;; *************** function __Umul8_16 *****************
  7920 ;; Defined at:
  7921 ;;		line 4 in file "C:\Program Files\Microchip\xc8\v3.10\pic\sources\c99\common\Umul8_16.c"
  7922 ;; Parameters:    Size  Location     Type
  7923 ;;  multiplier      1    wreg     unsigned char 
  7924 ;;  multiplicand    1    0[BANK0 ] unsigned char 
  7925 ;; Auto vars:     Size  Location     Type
  7926 ;;  multiplier      1    8[BANK0 ] unsigned char 
  7927 ;;  word_mpld       2    6[BANK0 ] unsigned short 
  7928 ;;  product         2    4[BANK0 ] unsigned short 
  7929 ;; Return value:  Size  Location     Type
  7930 ;;                  2    0[BANK0 ] unsigned int 
  7931 ;; Registers used:
  7932 ;;		wreg, status,2, status,0
  7933 ;; Tracked objects:
  7934 ;;		On entry : 0/0
  7935 ;;		On exit  : 0/0
  7936 ;;		Unchanged: 0/0
  7937 ;; Data sizes:     COMMON   BANK0   BANK1   BANK3   BANK2
  7938 ;;      Params:         0       2       0       0       0
  7939 ;;      Locals:         0       5       0       0       0
  7940 ;;      Temps:          0       2       0       0       0
  7941 ;;      Totals:         0       9       0       0       0
  7942 ;;Total ram usage:        9 bytes
  7943 ;; Hardware stack levels used: 1
  7944 ;; Hardware stack levels required when called: 2
  7945 ;; This function calls:
  7946 ;;		Nothing
  7947 ;; This function is called by:
  7948 ;;		___flmul
  7949 ;; This function uses a non-reentrant model
  7950 ;;
  7951                           
  7952     117B                     __Umul8_16:	
  7953                           ;psect for function __Umul8_16
  7954                           
  7955                           
  7956                           ;incstack = 0
  7957                           ; Regs used in __Umul8_16: [wreg+status,2+status,0]
  7958                           ;__Umul8_16@multiplier stored from wreg
  7959     117B  1283               	bcf	3,5	;RP0=0, select bank0
  7960     117C  1303               	bcf	3,6	;RP1=0, select bank0
  7961     117D  00A8               	movwf	__Umul8_16@multiplier
  7962     117E                     l2155:
  7963     117E  01A4               	clrf	__Umul8_16@product
  7964     117F  01A5               	clrf	__Umul8_16@product+1
  7965     1180                     l2157:
  7966     1180  0820               	movf	__Umul8_16@multiplicand,w
  7967     1181  00A2               	movwf	??__Umul8_16
  7968     1182  01A3               	clrf	??__Umul8_16+1
  7969     1183  0822               	movf	??__Umul8_16,w
  7970     1184  00A6               	movwf	__Umul8_16@word_mpld
  7971     1185  0823               	movf	??__Umul8_16+1,w
  7972     1186  00A7               	movwf	__Umul8_16@word_mpld+1
  7973     1187                     l2159:
  7974     1187  1C28               	btfss	__Umul8_16@multiplier,0
  7975     1188  298A               	goto	u2791
  7976     1189  298B               	goto	u2790
  7977     118A                     u2791:
  7978     118A  2991               	goto	l767
  7979     118B                     u2790:
  7980     118B                     l2161:
  7981     118B  0826               	movf	__Umul8_16@word_mpld,w
  7982     118C  07A4               	addwf	__Umul8_16@product,f
  7983     118D  1803               	skipnc
  7984     118E  0AA5               	incf	__Umul8_16@product+1,f
  7985     118F  0827               	movf	__Umul8_16@word_mpld+1,w
  7986     1190  07A5               	addwf	__Umul8_16@product+1,f
  7987     1191                     l767:
  7988     1191  3001               	movlw	1
  7989     1192                     u2805:
  7990     1192  1003               	clrc
  7991     1193  0DA6               	rlf	__Umul8_16@word_mpld,f
  7992     1194  0DA7               	rlf	__Umul8_16@word_mpld+1,f
  7993     1195  3EFF               	addlw	-1
  7994     1196  1D03               	skipz
  7995     1197  2992               	goto	u2805
  7996     1198  1003               	clrc
  7997     1199  0CA8               	rrf	__Umul8_16@multiplier,f
  7998     119A                     l2163:
  7999     119A  0828               	movf	__Umul8_16@multiplier,w
  8000     119B  1D03               	btfss	3,2
  8001     119C  299E               	goto	u2811
  8002     119D  299F               	goto	u2810
  8003     119E                     u2811:
  8004     119E  2987               	goto	l2159
  8005     119F                     u2810:
  8006     119F                     l2165:
  8007     119F  0825               	movf	__Umul8_16@product+1,w
  8008     11A0  00A1               	movwf	?__Umul8_16+1
  8009     11A1  0824               	movf	__Umul8_16@product,w
  8010     11A2  00A0               	movwf	?__Umul8_16
  8011     11A3                     l769:
  8012     11A3  0008               	return
  8013     11A4                     __end_of__Umul8_16:
  8014                           
  8015                           	psect	text19
  8016     1636                     __ptext19:	
  8017 ;; *************** function ___fldiv *****************
  8018 ;; Defined at:
  8019 ;;		line 8 in file "C:\Program Files\Microchip\xc8\v3.10\pic\sources\c99\common\sprcdiv.c"
  8020 ;; Parameters:    Size  Location     Type
  8021 ;;  a               4    0[BANK1 ] unsigned int 
  8022 ;;  b               4    4[BANK1 ] unsigned int 
  8023 ;; Auto vars:     Size  Location     Type
  8024 ;;  grs             4   20[BANK1 ] unsigned long 
  8025 ;;  rem             4   13[BANK1 ] unsigned long 
  8026 ;;  new_exp         2   18[BANK1 ] short 
  8027 ;;  aexp            1   25[BANK1 ] unsigned char 
  8028 ;;  bexp            1   24[BANK1 ] unsigned char 
  8029 ;;  sign            1   17[BANK1 ] unsigned char 
  8030 ;; Return value:  Size  Location     Type
  8031 ;;                  4    0[BANK1 ] unsigned char 
  8032 ;; Registers used:
  8033 ;;		wreg, status,2, status,0, btemp1
  8034 ;; Tracked objects:
  8035 ;;		On entry : 0/0
  8036 ;;		On exit  : 0/0
  8037 ;;		Unchanged: 0/0
  8038 ;; Data sizes:     COMMON   BANK0   BANK1   BANK3   BANK2
  8039 ;;      Params:         0       0       8       0       0
  8040 ;;      Locals:         0       0      13       0       0
  8041 ;;      Temps:          0       0       5       0       0
  8042 ;;      Totals:         0       0      26       0       0
  8043 ;;Total ram usage:       26 bytes
  8044 ;; Hardware stack levels used: 1
  8045 ;; Hardware stack levels required when called: 2
  8046 ;; This function calls:
  8047 ;;		Nothing
  8048 ;; This function is called by:
  8049 ;;		_getVoltage
  8050 ;;		_getAmps
  8051 ;; This function uses a non-reentrant model
  8052 ;;
  8053                           
  8054     1636                     ___fldiv:	
  8055                           ;psect for function ___fldiv
  8056                           
  8057     1636                     l2325:	
  8058                           ;incstack = 0
  8059                           ; Regs used in ___fldiv: [wreg+status,2+status,0+btemp1]
  8060                           
  8061     1636  1683               	bsf	3,5	;RP0=1, select bank1
  8062     1637  1303               	bcf	3,6	;RP1=0, select bank1
  8063     1638  0827               	movf	(___fldiv@b^(0+128)+3),w
  8064     1639  00B1               	movwf	___fldiv@sign^(0+128)
  8065     163A                     l2327:
  8066     163A  3080               	movlw	128
  8067     163B  05B1               	andwf	___fldiv@sign^(0+128),f
  8068     163C                     l2329:
  8069     163C  0827               	movf	(___fldiv@b^(0+128)+3),w
  8070     163D  00A8               	movwf	??___fldiv^(0+128)
  8071     163E  0728               	addwf	??___fldiv^(0+128),w
  8072     163F  00B8               	movwf	___fldiv@bexp^(0+128)
  8073     1640                     l2331:
  8074     1640  1FA6               	btfss	(___fldiv@b^(0+128)+2),7
  8075     1641  2E43               	goto	u3201
  8076     1642  2E44               	goto	u3200
  8077     1643                     u3201:
  8078     1643  2E45               	goto	l2335
  8079     1644                     u3200:
  8080     1644                     l2333:
  8081     1644  1438               	bsf	___fldiv@bexp^(0+128),0
  8082     1645                     l2335:
  8083     1645  0838               	movf	___fldiv@bexp^(0+128),w
  8084     1646  1903               	btfsc	3,2
  8085     1647  2E49               	goto	u3211
  8086     1648  2E4A               	goto	u3210
  8087     1649                     u3211:
  8088     1649  2E5A               	goto	l2345
  8089     164A                     u3210:
  8090     164A                     l2337:
  8091     164A  0A38               	incf	___fldiv@bexp^(0+128),w
  8092     164B  1D03               	btfss	3,2
  8093     164C  2E4E               	goto	u3221
  8094     164D  2E4F               	goto	u3220
  8095     164E                     u3221:
  8096     164E  2E57               	goto	l2341
  8097     164F                     u3220:
  8098     164F                     l2339:
  8099     164F  3000               	movlw	0
  8100     1650  00A7               	movwf	(___fldiv@b+3)^(0+128)
  8101     1651  3000               	movlw	0
  8102     1652  00A6               	movwf	(___fldiv@b+2)^(0+128)
  8103     1653  3000               	movlw	0
  8104     1654  00A5               	movwf	(___fldiv@b+1)^(0+128)
  8105     1655  3000               	movlw	0
  8106     1656  00A4               	movwf	___fldiv@b^(0+128)
  8107     1657                     l2341:
  8108     1657  17A6               	bsf	(___fldiv@b^(0+128)+2),7
  8109     1658                     l2343:
  8110     1658  01A7               	clrf	(___fldiv@b^(0+128)+3)
  8111     1659  2E62               	goto	l2347
  8112     165A                     l2345:
  8113     165A  3000               	movlw	0
  8114     165B  00A7               	movwf	(___fldiv@b+3)^(0+128)
  8115     165C  3000               	movlw	0
  8116     165D  00A6               	movwf	(___fldiv@b+2)^(0+128)
  8117     165E  3000               	movlw	0
  8118     165F  00A5               	movwf	(___fldiv@b+1)^(0+128)
  8119     1660  3000               	movlw	0
  8120     1661  00A4               	movwf	___fldiv@b^(0+128)
  8121     1662                     l2347:
  8122     1662  0823               	movf	(___fldiv@a^(0+128)+3),w
  8123     1663  3980               	andlw	128
  8124     1664  06B1               	xorwf	___fldiv@sign^(0+128),f
  8125     1665                     l2349:
  8126     1665  0823               	movf	(___fldiv@a^(0+128)+3),w
  8127     1666  00A8               	movwf	??___fldiv^(0+128)
  8128     1667  0728               	addwf	??___fldiv^(0+128),w
  8129     1668  00B9               	movwf	___fldiv@aexp^(0+128)
  8130     1669                     l2351:
  8131     1669  1FA2               	btfss	(___fldiv@a^(0+128)+2),7
  8132     166A  2E6C               	goto	u3231
  8133     166B  2E6D               	goto	u3230
  8134     166C                     u3231:
  8135     166C  2E6E               	goto	l2355
  8136     166D                     u3230:
  8137     166D                     l2353:
  8138     166D  1439               	bsf	___fldiv@aexp^(0+128),0
  8139     166E                     l2355:
  8140     166E  0839               	movf	___fldiv@aexp^(0+128),w
  8141     166F  1903               	btfsc	3,2
  8142     1670  2E72               	goto	u3241
  8143     1671  2E73               	goto	u3240
  8144     1672                     u3241:
  8145     1672  2E83               	goto	l2365
  8146     1673                     u3240:
  8147     1673                     l2357:
  8148     1673  0A39               	incf	___fldiv@aexp^(0+128),w
  8149     1674  1D03               	btfss	3,2
  8150     1675  2E77               	goto	u3251
  8151     1676  2E78               	goto	u3250
  8152     1677                     u3251:
  8153     1677  2E80               	goto	l2361
  8154     1678                     u3250:
  8155     1678                     l2359:
  8156     1678  3000               	movlw	0
  8157     1679  00A3               	movwf	(___fldiv@a+3)^(0+128)
  8158     167A  3000               	movlw	0
  8159     167B  00A2               	movwf	(___fldiv@a+2)^(0+128)
  8160     167C  3000               	movlw	0
  8161     167D  00A1               	movwf	(___fldiv@a+1)^(0+128)
  8162     167E  3000               	movlw	0
  8163     167F  00A0               	movwf	___fldiv@a^(0+128)
  8164     1680                     l2361:
  8165     1680  17A2               	bsf	(___fldiv@a^(0+128)+2),7
  8166     1681                     l2363:
  8167     1681  01A3               	clrf	(___fldiv@a^(0+128)+3)
  8168     1682  2E8B               	goto	l708
  8169     1683                     l2365:
  8170     1683  3000               	movlw	0
  8171     1684  00A3               	movwf	(___fldiv@a+3)^(0+128)
  8172     1685  3000               	movlw	0
  8173     1686  00A2               	movwf	(___fldiv@a+2)^(0+128)
  8174     1687  3000               	movlw	0
  8175     1688  00A1               	movwf	(___fldiv@a+1)^(0+128)
  8176     1689  3000               	movlw	0
  8177     168A  00A0               	movwf	___fldiv@a^(0+128)
  8178     168B                     l708:
  8179     168B  0823               	movf	(___fldiv@a+3)^(0+128),w
  8180     168C  0422               	iorwf	(___fldiv@a+2)^(0+128),w
  8181     168D  0421               	iorwf	(___fldiv@a+1)^(0+128),w
  8182     168E  0420               	iorwf	___fldiv@a^(0+128),w
  8183     168F  1D03               	skipz
  8184     1690  2E92               	goto	u3261
  8185     1691  2E93               	goto	u3260
  8186     1692                     u3261:
  8187     1692  2EAA               	goto	l2375
  8188     1693                     u3260:
  8189     1693                     l2367:
  8190     1693  3000               	movlw	0
  8191     1694  00A7               	movwf	(___fldiv@b+3)^(0+128)
  8192     1695  3000               	movlw	0
  8193     1696  00A6               	movwf	(___fldiv@b+2)^(0+128)
  8194     1697  3000               	movlw	0
  8195     1698  00A5               	movwf	(___fldiv@b+1)^(0+128)
  8196     1699  3000               	movlw	0
  8197     169A  00A4               	movwf	___fldiv@b^(0+128)
  8198     169B  3080               	movlw	128
  8199     169C  04A6               	iorwf	(___fldiv@b^(0+128)+2),f
  8200     169D  307F               	movlw	127
  8201     169E  04A7               	iorwf	((___fldiv@b+1)^(0+128)+2),f
  8202     169F                     l2369:
  8203     169F  0831               	movf	___fldiv@sign^(0+128),w
  8204     16A0  04A7               	iorwf	(___fldiv@b^(0+128)+3),f
  8205     16A1                     l2371:
  8206     16A1  0827               	movf	(___fldiv@b+3)^(0+128),w
  8207     16A2  00A3               	movwf	(?___fldiv+3)^(0+128)
  8208     16A3  0826               	movf	(___fldiv@b+2)^(0+128),w
  8209     16A4  00A2               	movwf	(?___fldiv+2)^(0+128)
  8210     16A5  0825               	movf	(___fldiv@b+1)^(0+128),w
  8211     16A6  00A1               	movwf	(?___fldiv+1)^(0+128)
  8212     16A7  0824               	movf	___fldiv@b^(0+128),w
  8213     16A8  00A0               	movwf	?___fldiv^(0+128)
  8214     16A9  2FFF               	goto	l710
  8215     16AA                     l2375:
  8216     16AA  0838               	movf	___fldiv@bexp^(0+128),w
  8217     16AB  1D03               	btfss	3,2
  8218     16AC  2EAE               	goto	u3271
  8219     16AD  2EAF               	goto	u3270
  8220     16AE                     u3271:
  8221     16AE  2EB8               	goto	l2381
  8222     16AF                     u3270:
  8223     16AF                     l2377:
  8224     16AF  3000               	movlw	0
  8225     16B0  00A3               	movwf	(?___fldiv+3)^(0+128)
  8226     16B1  3000               	movlw	0
  8227     16B2  00A2               	movwf	(?___fldiv+2)^(0+128)
  8228     16B3  3000               	movlw	0
  8229     16B4  00A1               	movwf	(?___fldiv+1)^(0+128)
  8230     16B5  3000               	movlw	0
  8231     16B6  00A0               	movwf	?___fldiv^(0+128)
  8232     16B7  2FFF               	goto	l710
  8233     16B8                     l2381:
  8234     16B8  0838               	movf	___fldiv@bexp^(0+128),w
  8235     16B9  00A8               	movwf	??___fldiv^(0+128)
  8236     16BA  01A9               	clrf	(??___fldiv+1)^(0+128)
  8237     16BB  0829               	movf	(??___fldiv+1)^(0+128),w
  8238     16BC  00AB               	movwf	(??___fldiv+3)^(0+128)
  8239     16BD  0839               	movf	___fldiv@aexp^(0+128),w
  8240     16BE  0228               	subwf	??___fldiv^(0+128),w
  8241     16BF  00AA               	movwf	(??___fldiv+2)^(0+128)
  8242     16C0  1C03               	skipc
  8243     16C1  03AB               	decf	(??___fldiv+3)^(0+128),f
  8244     16C2  082A               	movf	(??___fldiv+2)^(0+128),w
  8245     16C3  3E7F               	addlw	127
  8246     16C4  00B2               	movwf	___fldiv@new_exp^(0+128)
  8247     16C5  082B               	movf	(??___fldiv+3)^(0+128),w
  8248     16C6  1803               	skipnc
  8249     16C7  3E01               	addlw	1
  8250     16C8  3E00               	addlw	0
  8251     16C9  00B3               	movwf	(___fldiv@new_exp+1)^(0+128)
  8252     16CA                     l2383:
  8253     16CA  0827               	movf	(___fldiv@b+3)^(0+128),w
  8254     16CB  00B0               	movwf	(___fldiv@rem+3)^(0+128)
  8255     16CC  0826               	movf	(___fldiv@b+2)^(0+128),w
  8256     16CD  00AF               	movwf	(___fldiv@rem+2)^(0+128)
  8257     16CE  0825               	movf	(___fldiv@b+1)^(0+128),w
  8258     16CF  00AE               	movwf	(___fldiv@rem+1)^(0+128)
  8259     16D0  0824               	movf	___fldiv@b^(0+128),w
  8260     16D1  00AD               	movwf	___fldiv@rem^(0+128)
  8261     16D2                     l2385:
  8262     16D2  3000               	movlw	0
  8263     16D3  00A7               	movwf	(___fldiv@b+3)^(0+128)
  8264     16D4  3000               	movlw	0
  8265     16D5  00A6               	movwf	(___fldiv@b+2)^(0+128)
  8266     16D6  3000               	movlw	0
  8267     16D7  00A5               	movwf	(___fldiv@b+1)^(0+128)
  8268     16D8  3000               	movlw	0
  8269     16D9  00A4               	movwf	___fldiv@b^(0+128)
  8270     16DA                     l2387:
  8271     16DA  3000               	movlw	0
  8272     16DB  00B7               	movwf	(___fldiv@grs+3)^(0+128)
  8273     16DC  3000               	movlw	0
  8274     16DD  00B6               	movwf	(___fldiv@grs+2)^(0+128)
  8275     16DE  3000               	movlw	0
  8276     16DF  00B5               	movwf	(___fldiv@grs+1)^(0+128)
  8277     16E0  3000               	movlw	0
  8278     16E1  00B4               	movwf	___fldiv@grs^(0+128)
  8279     16E2                     l2389:
  8280     16E2  01B9               	clrf	___fldiv@aexp^(0+128)
  8281     16E3  2F2C               	goto	l2409
  8282     16E4                     l2391:
  8283     16E4  0839               	movf	___fldiv@aexp^(0+128),w
  8284     16E5  1903               	btfsc	3,2
  8285     16E6  2EE8               	goto	u3281
  8286     16E7  2EE9               	goto	u3280
  8287     16E8                     u3281:
  8288     16E8  2F09               	goto	l2401
  8289     16E9                     u3280:
  8290     16E9                     l2393:
  8291     16E9  3001               	movlw	1
  8292     16EA  00A8               	movwf	??___fldiv^(0+128)
  8293     16EB                     u3295:
  8294     16EB  1003               	clrc
  8295     16EC  0DAD               	rlf	___fldiv@rem^(0+128),f
  8296     16ED  0DAE               	rlf	(___fldiv@rem+1)^(0+128),f
  8297     16EE  0DAF               	rlf	(___fldiv@rem+2)^(0+128),f
  8298     16EF  0DB0               	rlf	(___fldiv@rem+3)^(0+128),f
  8299     16F0  0BA8               	decfsz	??___fldiv^(0+128),f
  8300     16F1  2EEB               	goto	u3295
  8301     16F2  3001               	movlw	1
  8302     16F3  00A8               	movwf	??___fldiv^(0+128)
  8303     16F4                     u3305:
  8304     16F4  1003               	clrc
  8305     16F5  0DA4               	rlf	___fldiv@b^(0+128),f
  8306     16F6  0DA5               	rlf	(___fldiv@b+1)^(0+128),f
  8307     16F7  0DA6               	rlf	(___fldiv@b+2)^(0+128),f
  8308     16F8  0DA7               	rlf	(___fldiv@b+3)^(0+128),f
  8309     16F9  0BA8               	decfsz	??___fldiv^(0+128),f
  8310     16FA  2EF4               	goto	u3305
  8311     16FB                     l2395:
  8312     16FB  1FB7               	btfss	(___fldiv@grs+3)^(0+128),7
  8313     16FC  2EFE               	goto	u3311
  8314     16FD  2EFF               	goto	u3310
  8315     16FE                     u3311:
  8316     16FE  2F00               	goto	l2399
  8317     16FF                     u3310:
  8318     16FF                     l2397:
  8319     16FF  1424               	bsf	___fldiv@b^(0+128),0
  8320     1700                     l2399:
  8321     1700  3001               	movlw	1
  8322     1701  00A8               	movwf	??___fldiv^(0+128)
  8323     1702                     u3325:
  8324     1702  1003               	clrc
  8325     1703  0DB4               	rlf	___fldiv@grs^(0+128),f
  8326     1704  0DB5               	rlf	(___fldiv@grs+1)^(0+128),f
  8327     1705  0DB6               	rlf	(___fldiv@grs+2)^(0+128),f
  8328     1706  0DB7               	rlf	(___fldiv@grs+3)^(0+128),f
  8329     1707  0BA8               	decfsz	??___fldiv^(0+128),f
  8330     1708  2F02               	goto	u3325
  8331     1709                     l2401:
  8332     1709  0823               	movf	(___fldiv@a+3)^(0+128),w
  8333     170A  0230               	subwf	(___fldiv@rem+3)^(0+128),w
  8334     170B  1D03               	skipz
  8335     170C  2F17               	goto	u3335
  8336     170D  0822               	movf	(___fldiv@a+2)^(0+128),w
  8337     170E  022F               	subwf	(___fldiv@rem+2)^(0+128),w
  8338     170F  1D03               	skipz
  8339     1710  2F17               	goto	u3335
  8340     1711  0821               	movf	(___fldiv@a+1)^(0+128),w
  8341     1712  022E               	subwf	(___fldiv@rem+1)^(0+128),w
  8342     1713  1D03               	skipz
  8343     1714  2F17               	goto	u3335
  8344     1715  0820               	movf	___fldiv@a^(0+128),w
  8345     1716  022D               	subwf	___fldiv@rem^(0+128),w
  8346     1717                     u3335:
  8347     1717  1C03               	skipc
  8348     1718  2F1A               	goto	u3331
  8349     1719  2F1B               	goto	u3330
  8350     171A                     u3331:
  8351     171A  2F2A               	goto	l2407
  8352     171B                     u3330:
  8353     171B                     l2403:
  8354     171B  1737               	bsf	(___fldiv@grs^(0+128)+3),6
  8355     171C                     l2405:
  8356     171C  0820               	movf	___fldiv@a^(0+128),w
  8357     171D  02AD               	subwf	___fldiv@rem^(0+128),f
  8358     171E  0821               	movf	(___fldiv@a+1)^(0+128),w
  8359     171F  1C03               	skipc
  8360     1720  0F21               	incfsz	(___fldiv@a+1)^(0+128),w
  8361     1721  02AE               	subwf	(___fldiv@rem+1)^(0+128),f
  8362     1722  0822               	movf	(___fldiv@a+2)^(0+128),w
  8363     1723  1C03               	skipc
  8364     1724  0F22               	incfsz	(___fldiv@a+2)^(0+128),w
  8365     1725  02AF               	subwf	(___fldiv@rem+2)^(0+128),f
  8366     1726  0823               	movf	(___fldiv@a+3)^(0+128),w
  8367     1727  1C03               	skipc
  8368     1728  0F23               	incfsz	(___fldiv@a+3)^(0+128),w
  8369     1729  02B0               	subwf	(___fldiv@rem+3)^(0+128),f
  8370     172A                     l2407:
  8371     172A  3001               	movlw	1
  8372     172B  07B9               	addwf	___fldiv@aexp^(0+128),f
  8373     172C                     l2409:
  8374     172C  301A               	movlw	26
  8375     172D  0239               	subwf	___fldiv@aexp^(0+128),w
  8376     172E  1C03               	skipc
  8377     172F  2F31               	goto	u3341
  8378     1730  2F32               	goto	u3340
  8379     1731                     u3341:
  8380     1731  2EE4               	goto	l2391
  8381     1732                     u3340:
  8382     1732                     l2411:
  8383     1732  0830               	movf	(___fldiv@rem+3)^(0+128),w
  8384     1733  042F               	iorwf	(___fldiv@rem+2)^(0+128),w
  8385     1734  042E               	iorwf	(___fldiv@rem+1)^(0+128),w
  8386     1735  042D               	iorwf	___fldiv@rem^(0+128),w
  8387     1736  1903               	skipnz
  8388     1737  2F39               	goto	u3351
  8389     1738  2F3A               	goto	u3350
  8390     1739                     u3351:
  8391     1739  2F59               	goto	l2425
  8392     173A                     u3350:
  8393     173A                     l2413:
  8394     173A  1434               	bsf	___fldiv@grs^(0+128),0
  8395     173B  2F59               	goto	l2425
  8396     173C                     l2415:
  8397     173C  3001               	movlw	1
  8398     173D  00A8               	movwf	??___fldiv^(0+128)
  8399     173E                     u3365:
  8400     173E  1003               	clrc
  8401     173F  0DA4               	rlf	___fldiv@b^(0+128),f
  8402     1740  0DA5               	rlf	(___fldiv@b+1)^(0+128),f
  8403     1741  0DA6               	rlf	(___fldiv@b+2)^(0+128),f
  8404     1742  0DA7               	rlf	(___fldiv@b+3)^(0+128),f
  8405     1743  0BA8               	decfsz	??___fldiv^(0+128),f
  8406     1744  2F3E               	goto	u3365
  8407     1745                     l2417:
  8408     1745  1FB7               	btfss	(___fldiv@grs+3)^(0+128),7
  8409     1746  2F48               	goto	u3371
  8410     1747  2F49               	goto	u3370
  8411     1748                     u3371:
  8412     1748  2F4A               	goto	l2421
  8413     1749                     u3370:
  8414     1749                     l2419:
  8415     1749  1424               	bsf	___fldiv@b^(0+128),0
  8416     174A                     l2421:
  8417     174A  3001               	movlw	1
  8418     174B  00A8               	movwf	??___fldiv^(0+128)
  8419     174C                     u3385:
  8420     174C  1003               	clrc
  8421     174D  0DB4               	rlf	___fldiv@grs^(0+128),f
  8422     174E  0DB5               	rlf	(___fldiv@grs+1)^(0+128),f
  8423     174F  0DB6               	rlf	(___fldiv@grs+2)^(0+128),f
  8424     1750  0DB7               	rlf	(___fldiv@grs+3)^(0+128),f
  8425     1751  0BA8               	decfsz	??___fldiv^(0+128),f
  8426     1752  2F4C               	goto	u3385
  8427     1753                     l2423:
  8428     1753  30FF               	movlw	255
  8429     1754  07B2               	addwf	___fldiv@new_exp^(0+128),f
  8430     1755  1803               	skipnc
  8431     1756  0AB3               	incf	(___fldiv@new_exp+1)^(0+128),f
  8432     1757  30FF               	movlw	255
  8433     1758  07B3               	addwf	(___fldiv@new_exp+1)^(0+128),f
  8434     1759                     l2425:
  8435     1759  1FA6               	btfss	(___fldiv@b+2)^(0+128),7
  8436     175A  2F5C               	goto	u3391
  8437     175B  2F5D               	goto	u3390
  8438     175C                     u3391:
  8439     175C  2F3C               	goto	l2415
  8440     175D                     u3390:
  8441     175D                     l2427:
  8442     175D  01B9               	clrf	___fldiv@aexp^(0+128)
  8443     175E                     l2429:
  8444     175E  1FB7               	btfss	(___fldiv@grs+3)^(0+128),7
  8445     175F  2F61               	goto	u3401
  8446     1760  2F62               	goto	u3400
  8447     1761                     u3401:
  8448     1761  2F7E               	goto	l2437
  8449     1762                     u3400:
  8450     1762                     l2431:
  8451     1762  30FF               	movlw	255
  8452     1763  0534               	andwf	___fldiv@grs^(0+128),w
  8453     1764  00A8               	movwf	??___fldiv^(0+128)
  8454     1765  30FF               	movlw	255
  8455     1766  0535               	andwf	(___fldiv@grs+1)^(0+128),w
  8456     1767  00A9               	movwf	(??___fldiv^(0+128)+1)
  8457     1768  30FF               	movlw	255
  8458     1769  0536               	andwf	(___fldiv@grs+2)^(0+128),w
  8459     176A  00AA               	movwf	(??___fldiv^(0+128)+2)
  8460     176B  307F               	movlw	127
  8461     176C  0537               	andwf	(___fldiv@grs+3)^(0+128),w
  8462     176D  00AB               	movwf	(??___fldiv^(0+128)+3)
  8463     176E  082B               	movf	(??___fldiv+3)^(0+128),w
  8464     176F  042A               	iorwf	(??___fldiv+2)^(0+128),w
  8465     1770  0429               	iorwf	(??___fldiv+1)^(0+128),w
  8466     1771  0428               	iorwf	??___fldiv^(0+128),w
  8467     1772  1903               	skipnz
  8468     1773  2F75               	goto	u3411
  8469     1774  2F76               	goto	u3410
  8470     1775                     u3411:
  8471     1775  2F79               	goto	l724
  8472     1776                     u3410:
  8473     1776                     l2433:
  8474     1776  3001               	movlw	1
  8475     1777  00B9               	movwf	___fldiv@aexp^(0+128)
  8476     1778  2F7E               	goto	l2437
  8477     1779                     l724:
  8478     1779  1C24               	btfss	___fldiv@b^(0+128),0
  8479     177A  2F7C               	goto	u3421
  8480     177B  2F7D               	goto	u3420
  8481     177C                     u3421:
  8482     177C  2F7E               	goto	l2437
  8483     177D                     u3420:
  8484     177D  2F76               	goto	l2433
  8485     177E                     l2437:
  8486     177E  0839               	movf	___fldiv@aexp^(0+128),w
  8487     177F  1903               	btfsc	3,2
  8488     1780  2F82               	goto	u3431
  8489     1781  2F83               	goto	u3430
  8490     1782                     u3431:
  8491     1782  2FB4               	goto	l2447
  8492     1783                     u3430:
  8493     1783                     l2439:
  8494     1783  3001               	movlw	1
  8495     1784  07A4               	addwf	___fldiv@b^(0+128),f
  8496     1785  3000               	movlw	0
  8497     1786  1803               	skipnc
  8498     1787  3001               	movlw	1
  8499     1788  07A5               	addwf	(___fldiv@b+1)^(0+128),f
  8500     1789  3000               	movlw	0
  8501     178A  1803               	skipnc
  8502     178B  3001               	movlw	1
  8503     178C  07A6               	addwf	(___fldiv@b+2)^(0+128),f
  8504     178D  3000               	movlw	0
  8505     178E  1803               	skipnc
  8506     178F  3001               	movlw	1
  8507     1790  07A7               	addwf	(___fldiv@b+3)^(0+128),f
  8508     1791                     l2441:
  8509     1791  1C27               	btfss	(___fldiv@b+3)^(0+128),0
  8510     1792  2F94               	goto	u3441
  8511     1793  2F95               	goto	u3440
  8512     1794                     u3441:
  8513     1794  2FB4               	goto	l2447
  8514     1795                     u3440:
  8515     1795                     l2443:
  8516     1795  0824               	movf	___fldiv@b^(0+128),w
  8517     1796  00A8               	movwf	??___fldiv^(0+128)
  8518     1797  0825               	movf	(___fldiv@b+1)^(0+128),w
  8519     1798  00A9               	movwf	(??___fldiv^(0+128)+1)
  8520     1799  0826               	movf	(___fldiv@b+2)^(0+128),w
  8521     179A  00AA               	movwf	(??___fldiv^(0+128)+2)
  8522     179B  0827               	movf	(___fldiv@b+3)^(0+128),w
  8523     179C  00AB               	movwf	(??___fldiv^(0+128)+3)
  8524     179D  3001               	movlw	1
  8525     179E  00AC               	movwf	(??___fldiv+4)^(0+128)
  8526     179F                     u3455:
  8527     179F  0D2B               	rlf	(??___fldiv+3)^(0+128),w
  8528     17A0  0CAB               	rrf	(??___fldiv+3)^(0+128),f
  8529     17A1  0CAA               	rrf	(??___fldiv+2)^(0+128),f
  8530     17A2  0CA9               	rrf	(??___fldiv+1)^(0+128),f
  8531     17A3  0CA8               	rrf	??___fldiv^(0+128),f
  8532     17A4                     u3450:
  8533     17A4  0BAC               	decfsz	(??___fldiv+4)^(0+128),f
  8534     17A5  2F9F               	goto	u3455
  8535     17A6  082B               	movf	(??___fldiv+3)^(0+128),w
  8536     17A7  00A7               	movwf	(___fldiv@b+3)^(0+128)
  8537     17A8  082A               	movf	(??___fldiv+2)^(0+128),w
  8538     17A9  00A6               	movwf	(___fldiv@b+2)^(0+128)
  8539     17AA  0829               	movf	(??___fldiv+1)^(0+128),w
  8540     17AB  00A5               	movwf	(___fldiv@b+1)^(0+128)
  8541     17AC  0828               	movf	??___fldiv^(0+128),w
  8542     17AD  00A4               	movwf	___fldiv@b^(0+128)
  8543     17AE                     l2445:
  8544     17AE  3001               	movlw	1
  8545     17AF  07B2               	addwf	___fldiv@new_exp^(0+128),f
  8546     17B0  1803               	skipnc
  8547     17B1  0AB3               	incf	(___fldiv@new_exp+1)^(0+128),f
  8548     17B2  3000               	movlw	0
  8549     17B3  07B3               	addwf	(___fldiv@new_exp+1)^(0+128),f
  8550     17B4                     l2447:
  8551     17B4  0833               	movf	(___fldiv@new_exp+1)^(0+128),w
  8552     17B5  3A80               	xorlw	128
  8553     17B6  00FF               	movwf	btemp1
  8554     17B7  3080               	movlw	128
  8555     17B8  027F               	subwf	btemp1,w
  8556     17B9  1D03               	skipz
  8557     17BA  2FBD               	goto	u3465
  8558     17BB  30FF               	movlw	255
  8559     17BC  0232               	subwf	___fldiv@new_exp^(0+128),w
  8560     17BD                     u3465:
  8561     17BD  1C03               	skipc
  8562     17BE  2FC0               	goto	u3461
  8563     17BF  2FC1               	goto	u3460
  8564     17C0                     u3461:
  8565     17C0  2FCF               	goto	l2451
  8566     17C1                     u3460:
  8567     17C1                     l2449:
  8568     17C1  30FF               	movlw	255
  8569     17C2  1683               	bsf	3,5	;RP0=1, select bank1
  8570     17C3  1303               	bcf	3,6	;RP1=0, select bank1
  8571     17C4  00B2               	movwf	___fldiv@new_exp^(0+128)
  8572     17C5  3000               	movlw	0
  8573     17C6  00B3               	movwf	(___fldiv@new_exp^(0+128)+1)
  8574     17C7  3000               	movlw	0
  8575     17C8  00A7               	movwf	(___fldiv@b+3)^(0+128)
  8576     17C9  3000               	movlw	0
  8577     17CA  00A6               	movwf	(___fldiv@b+2)^(0+128)
  8578     17CB  3000               	movlw	0
  8579     17CC  00A5               	movwf	(___fldiv@b+1)^(0+128)
  8580     17CD  3000               	movlw	0
  8581     17CE  00A4               	movwf	___fldiv@b^(0+128)
  8582     17CF                     l2451:
  8583     17CF  1683               	bsf	3,5	;RP0=1, select bank1
  8584     17D0  1303               	bcf	3,6	;RP1=0, select bank1
  8585     17D1  0833               	movf	(___fldiv@new_exp+1)^(0+128),w
  8586     17D2  3A80               	xorlw	128
  8587     17D3  00FF               	movwf	btemp1
  8588     17D4  3080               	movlw	128
  8589     17D5  027F               	subwf	btemp1,w
  8590     17D6  1D03               	skipz
  8591     17D7  2FDA               	goto	u3475
  8592     17D8  3001               	movlw	1
  8593     17D9  0232               	subwf	___fldiv@new_exp^(0+128),w
  8594     17DA                     u3475:
  8595     17DA  1803               	skipnc
  8596     17DB  2FDD               	goto	u3471
  8597     17DC  2FDE               	goto	u3470
  8598     17DD                     u3471:
  8599     17DD  2FEB               	goto	l730
  8600     17DE                     u3470:
  8601     17DE                     l2453:
  8602     17DE  1683               	bsf	3,5	;RP0=1, select bank1
  8603     17DF  1303               	bcf	3,6	;RP1=0, select bank1
  8604     17E0  01B2               	clrf	___fldiv@new_exp^(0+128)
  8605     17E1  01B3               	clrf	(___fldiv@new_exp+1)^(0+128)
  8606     17E2                     l2455:
  8607     17E2  3000               	movlw	0
  8608     17E3  00A7               	movwf	(___fldiv@b+3)^(0+128)
  8609     17E4  3000               	movlw	0
  8610     17E5  00A6               	movwf	(___fldiv@b+2)^(0+128)
  8611     17E6  3000               	movlw	0
  8612     17E7  00A5               	movwf	(___fldiv@b+1)^(0+128)
  8613     17E8  3000               	movlw	0
  8614     17E9  00A4               	movwf	___fldiv@b^(0+128)
  8615     17EA                     l2457:
  8616     17EA  01B1               	clrf	___fldiv@sign^(0+128)
  8617     17EB                     l730:
  8618     17EB  1683               	bsf	3,5	;RP0=1, select bank1
  8619     17EC  1303               	bcf	3,6	;RP1=0, select bank1
  8620     17ED  0832               	movf	___fldiv@new_exp^(0+128),w
  8621     17EE  00B8               	movwf	___fldiv@bexp^(0+128)
  8622     17EF                     l2459:
  8623     17EF  1C38               	btfss	___fldiv@bexp^(0+128),0
  8624     17F0  2FF2               	goto	u3481
  8625     17F1  2FF3               	goto	u3480
  8626     17F2                     u3481:
  8627     17F2  2FF5               	goto	l2463
  8628     17F3                     u3480:
  8629     17F3                     l2461:
  8630     17F3  17A6               	bsf	(___fldiv@b^(0+128)+2),7
  8631     17F4  2FF7               	goto	l732
  8632     17F5                     l2463:
  8633     17F5  307F               	movlw	127
  8634     17F6  05A6               	andwf	(___fldiv@b^(0+128)+2),f
  8635     17F7                     l732:
  8636     17F7  0838               	movf	___fldiv@bexp^(0+128),w
  8637     17F8  00A8               	movwf	??___fldiv^(0+128)
  8638     17F9  1003               	clrc
  8639     17FA  0C28               	rrf	??___fldiv^(0+128),w
  8640     17FB  00A7               	movwf	(___fldiv@b^(0+128)+3)
  8641     17FC  0831               	movf	___fldiv@sign^(0+128),w
  8642     17FD  04A7               	iorwf	(___fldiv@b^(0+128)+3),f
  8643     17FE  2EA1               	goto	l2371
  8644     17FF                     l710:
  8645     17FF  0008               	return
  8646     1800                     __end_of___fldiv:
  8647                           
  8648                           	psect	text20
  8649     1110                     __ptext20:	
  8650 ;; *************** function _ADC_Init *****************
  8651 ;; Defined at:
  8652 ;;		line 97 in file "main.c"
  8653 ;; Parameters:    Size  Location     Type
  8654 ;;		None
  8655 ;; Auto vars:     Size  Location     Type
  8656 ;;		None
  8657 ;; Return value:  Size  Location     Type
  8658 ;;                  1    wreg      void 
  8659 ;; Registers used:
  8660 ;;		wreg, status,2, status,0
  8661 ;; Tracked objects:
  8662 ;;		On entry : 0/0
  8663 ;;		On exit  : 0/0
  8664 ;;		Unchanged: 0/0
  8665 ;; Data sizes:     COMMON   BANK0   BANK1   BANK3   BANK2
  8666 ;;      Params:         0       0       0       0       0
  8667 ;;      Locals:         0       0       0       0       0
  8668 ;;      Temps:          0       2       0       0       0
  8669 ;;      Totals:         0       2       0       0       0
  8670 ;;Total ram usage:        2 bytes
  8671 ;; Hardware stack levels used: 1
  8672 ;; Hardware stack levels required when called: 2
  8673 ;; This function calls:
  8674 ;;		Nothing
  8675 ;; This function is called by:
  8676 ;;		_main
  8677 ;; This function uses a non-reentrant model
  8678 ;;
  8679                           
  8680     1110                     _ADC_Init:	
  8681                           ;psect for function _ADC_Init
  8682                           
  8683     1110                     l2653:	
  8684                           ;incstack = 0
  8685                           ; Regs used in _ADC_Init: [wreg+status,2+status,0]
  8686                           
  8687                           
  8688                           ;main.c: 99:     TRISAbits.TRISA0 = 1;
  8689     1110  1683               	bsf	3,5	;RP0=1, select bank1
  8690     1111  1303               	bcf	3,6	;RP1=0, select bank1
  8691     1112  1405               	bsf	5,0	;volatile
  8692                           
  8693                           ;main.c: 100:     TRISAbits.TRISA1 = 1;
  8694     1113  1485               	bsf	5,1	;volatile
  8695                           
  8696                           ;main.c: 101:     TRISAbits.TRISA2 = 1;
  8697     1114  1505               	bsf	5,2	;volatile
  8698                           
  8699                           ;main.c: 103:     ANSEL = 0x07;
  8700     1115  3007               	movlw	7
  8701     1116  1683               	bsf	3,5	;RP0=1, select bank3
  8702     1117  1703               	bsf	3,6	;RP1=1, select bank3
  8703     1118  0088               	movwf	8	;volatile
  8704     1119                     l2655:
  8705                           
  8706                           ;main.c: 104:     ANSELH = 0x00;
  8707     1119  0189               	clrf	9	;volatile
  8708     111A                     l2657:
  8709                           
  8710                           ;main.c: 106:     ADCON1bits.ADFM = 1;
  8711     111A  1683               	bsf	3,5	;RP0=1, select bank1
  8712     111B  1303               	bcf	3,6	;RP1=0, select bank1
  8713     111C  179F               	bsf	31,7	;volatile
  8714     111D                     l2659:
  8715                           
  8716                           ;main.c: 107:     ADCON0bits.ADCS = 0b10;
  8717     111D  1283               	bcf	3,5	;RP0=0, select bank0
  8718     111E  1303               	bcf	3,6	;RP1=0, select bank0
  8719     111F  081F               	movf	31,w	;volatile
  8720     1120  393F               	andlw	-193
  8721     1121  3880               	iorlw	128
  8722     1122  009F               	movwf	31	;volatile
  8723     1123                     l2661:
  8724                           
  8725                           ;main.c: 108:     ADCON0bits.ADON = 1;
  8726     1123  141F               	bsf	31,0	;volatile
  8727     1124                     l2663:
  8728                           
  8729                           ;main.c: 110:     _delay((unsigned long)((5)*(8000000/4000.0)));
  8730     1124  300D               	movlw	13
  8731     1125  1283               	bcf	3,5	;RP0=0, select bank0
  8732     1126  1303               	bcf	3,6	;RP1=0, select bank0
  8733     1127  00A1               	movwf	??_ADC_Init+1
  8734     1128  30FB               	movlw	251
  8735     1129  00A0               	movwf	??_ADC_Init
  8736     112A                     u4817:
  8737     112A  0BA0               	decfsz	??_ADC_Init,f
  8738     112B  292A               	goto	u4817
  8739     112C  0BA1               	decfsz	??_ADC_Init+1,f
  8740     112D  292A               	goto	u4817
  8741     112E                     l135:
  8742     112E  0008               	return
  8743     112F                     __end_of_ADC_Init:
  8744                           
  8745                           	psect	text21
  8746     11A4                     __ptext21:	
  8747 ;; *************** function _ISR *****************
  8748 ;; Defined at:
  8749 ;;		line 268 in file "main.c"
  8750 ;; Parameters:    Size  Location     Type
  8751 ;;		None
  8752 ;; Auto vars:     Size  Location     Type
  8753 ;;		None
  8754 ;; Return value:  Size  Location     Type
  8755 ;;                  1    wreg      void 
  8756 ;; Registers used:
  8757 ;;		wreg, status,2, status,0, pclath, cstack
  8758 ;; Tracked objects:
  8759 ;;		On entry : 0/0
  8760 ;;		On exit  : 0/0
  8761 ;;		Unchanged: 0/0
  8762 ;; Data sizes:     COMMON   BANK0   BANK1   BANK3   BANK2
  8763 ;;      Params:         0       0       0       0       0
  8764 ;;      Locals:         0       0       0       0       0
  8765 ;;      Temps:          2       0       0       0       0
  8766 ;;      Totals:         2       0       0       0       0
  8767 ;;Total ram usage:        2 bytes
  8768 ;; Hardware stack levels used: 1
  8769 ;; Hardware stack levels required when called: 1
  8770 ;; This function calls:
  8771 ;;		_custom_display
  8772 ;; This function is called by:
  8773 ;;		Interrupt level 1
  8774 ;; This function uses a non-reentrant model
  8775 ;;
  8776                           
  8777     11A4                     _ISR:	
  8778                           ;psect for function _ISR
  8779                           
  8780     11A4                     i1l2819:
  8781                           
  8782                           ;main.c: 271:     if(TMR1IF)
  8783     11A4  1283               	bcf	3,5	;RP0=0, select bank0
  8784     11A5  1303               	bcf	3,6	;RP1=0, select bank0
  8785     11A6  1C0C               	btfss	12,0	;volatile
  8786     11A7  29A9               	goto	u411_21
  8787     11A8  29AA               	goto	u411_20
  8788     11A9                     u411_21:
  8789     11A9  29D3               	goto	i1l173
  8790     11AA                     u411_20:
  8791     11AA                     i1l2821:
  8792                           
  8793                           ;main.c: 272:     {;main.c: 274:         TMR1IF = 0;
  8794     11AA  100C               	bcf	12,0	;volatile
  8795                           
  8796                           ;main.c: 276:         TMR1H = 0xF0;
  8797     11AB  30F0               	movlw	240
  8798     11AC  008F               	movwf	15	;volatile
  8799                           
  8800                           ;main.c: 277:         TMR1L = 0x60;
  8801     11AD  3060               	movlw	96
  8802     11AE  008E               	movwf	14	;volatile
  8803     11AF                     i1l2823:
  8804                           
  8805                           ;main.c: 279:         counter_pwm++;
  8806     11AF  3001               	movlw	1
  8807     11B0  07F8               	addwf	_counter_pwm,f	;volatile
  8808     11B1  1803               	skipnc
  8809     11B2  0AF9               	incf	_counter_pwm+1,f	;volatile
  8810     11B3  3000               	movlw	0
  8811     11B4  07F9               	addwf	_counter_pwm+1,f	;volatile
  8812                           
  8813                           ;main.c: 280:         if(counter_pwm >= 100) counter_pwm = 0;
  8814     11B5  3000               	movlw	0
  8815     11B6  0279               	subwf	_counter_pwm+1,w	;volatile
  8816     11B7  3064               	movlw	100
  8817     11B8  1903               	skipnz
  8818     11B9  0278               	subwf	_counter_pwm,w	;volatile
  8819     11BA  1C03               	skipc
  8820     11BB  29BD               	goto	u412_21
  8821     11BC  29BE               	goto	u412_20
  8822     11BD                     u412_21:
  8823     11BD  29C0               	goto	i1l2827
  8824     11BE                     u412_20:
  8825     11BE                     i1l2825:
  8826     11BE  01F8               	clrf	_counter_pwm	;volatile
  8827     11BF  01F9               	clrf	_counter_pwm+1	;volatile
  8828     11C0                     i1l2827:
  8829                           
  8830                           ;main.c: 282:         if(counter_pwm < duty)
  8831     11C0  1683               	bsf	3,5	;RP0=1, select bank3
  8832     11C1  1703               	bsf	3,6	;RP1=1, select bank3
  8833     11C2  084A               	movf	(_duty+1)^(0+384),w	;volatile
  8834     11C3  0279               	subwf	_counter_pwm+1,w	;volatile
  8835     11C4  1D03               	skipz
  8836     11C5  29C8               	goto	u413_25
  8837     11C6  0849               	movf	_duty^(0+384),w	;volatile
  8838     11C7  0278               	subwf	_counter_pwm,w	;volatile
  8839     11C8                     u413_25:
  8840     11C8  1803               	skipnc
  8841     11C9  29CB               	goto	u413_21
  8842     11CA  29CC               	goto	u413_20
  8843     11CB                     u413_21:
  8844     11CB  29D0               	goto	i1l175
  8845     11CC                     u413_20:
  8846     11CC                     i1l2829:
  8847                           
  8848                           ;main.c: 283:             RC3 = 1;
  8849     11CC  1283               	bcf	3,5	;RP0=0, select bank0
  8850     11CD  1303               	bcf	3,6	;RP1=0, select bank0
  8851     11CE  1587               	bsf	7,3	;volatile
  8852     11CF  29D3               	goto	i1l173
  8853     11D0                     i1l175:	
  8854                           ;main.c: 284:         else
  8855                           
  8856                           
  8857                           ;main.c: 285:             RC3 = 0;
  8858     11D0  1283               	bcf	3,5	;RP0=0, select bank0
  8859     11D1  1303               	bcf	3,6	;RP1=0, select bank0
  8860     11D2  1187               	bcf	7,3	;volatile
  8861     11D3                     i1l173:	
  8862                           ;main.c: 286:     }
  8863                           
  8864                           
  8865                           ;main.c: 288:     if (TMR0IF)
  8866     11D3  1D0B               	btfss	11,2	;volatile
  8867     11D4  29D6               	goto	u414_21
  8868     11D5  29D7               	goto	u414_20
  8869     11D6                     u414_21:
  8870     11D6  29F8               	goto	i1l187
  8871     11D7                     u414_20:
  8872     11D7                     i1l2831:
  8873                           
  8874                           ;main.c: 289:   {;main.c: 290:     static unsigned char s1;;main.c: 291:     static unsi
      +                          gned char s2;;main.c: 292:     static unsigned char s3;;main.c: 293:     static unsigned
      +                           char s4;;main.c: 295:     if (outputOk == 1)
  8875     11D7  1683               	bsf	3,5	;RP0=1, select bank3
  8876     11D8  1703               	bsf	3,6	;RP1=1, select bank3
  8877     11D9  0329               	decf	_outputOk^(0+384),w
  8878     11DA  1D03               	btfss	3,2
  8879     11DB  29DD               	goto	u415_21
  8880     11DC  29DE               	goto	u415_20
  8881     11DD                     u415_21:
  8882     11DD  29E7               	goto	i1l2843
  8883     11DE                     u415_20:
  8884     11DE                     i1l2833:
  8885                           
  8886                           ;main.c: 296:     {;main.c: 297:       outputOk = 0;
  8887     11DE  01A9               	clrf	_outputOk^(0+384)
  8888     11DF                     i1l2835:
  8889                           
  8890                           ;main.c: 298:       s1 = ts1;
  8891     11DF  0830               	movf	_ts1^(0+384),w	;volatile
  8892     11E0  00A6               	movwf	ISR@s1^(0+384)
  8893     11E1                     i1l2837:
  8894                           
  8895                           ;main.c: 299:       s2 = ts2;
  8896     11E1  082F               	movf	_ts2^(0+384),w	;volatile
  8897     11E2  00A5               	movwf	ISR@s2^(0+384)
  8898     11E3                     i1l2839:
  8899                           
  8900                           ;main.c: 300:       s3 = ts3;
  8901     11E3  082E               	movf	_ts3^(0+384),w	;volatile
  8902     11E4  00A4               	movwf	ISR@s3^(0+384)
  8903     11E5                     i1l2841:
  8904                           
  8905                           ;main.c: 301:       s4 = ts4;
  8906     11E5  082D               	movf	_ts4^(0+384),w	;volatile
  8907     11E6  00A3               	movwf	ISR@s4^(0+384)
  8908     11E7                     i1l2843:
  8909                           
  8910                           ;main.c: 303:     custom_display(s1, s2, s3, s4);
  8911     11E7  0825               	movf	ISR@s2^(0+384),w
  8912     11E8  00F0               	movwf	custom_display@two
  8913     11E9  0824               	movf	ISR@s3^(0+384),w
  8914     11EA  00F1               	movwf	custom_display@three
  8915     11EB  0823               	movf	ISR@s4^(0+384),w
  8916     11EC  00F2               	movwf	custom_display@four
  8917     11ED  0826               	movf	ISR@s1^(0+384),w
  8918     11EE  120A  118A  27AD  160A  118A  	fcall	_custom_display
  8919     11F3                     i1l2845:
  8920                           
  8921                           ;main.c: 305:     TMR0IF = 0;
  8922     11F3  110B               	bcf	11,2	;volatile
  8923     11F4                     i1l2847:
  8924                           
  8925                           ;main.c: 306:     TMR0 = 0X83;
  8926     11F4  3083               	movlw	131
  8927     11F5  1283               	bcf	3,5	;RP0=0, select bank0
  8928     11F6  1303               	bcf	3,6	;RP1=0, select bank0
  8929     11F7  0081               	movwf	1	;volatile
  8930     11F8                     i1l187:
  8931     11F8  0877               	movf	??_ISR+1,w
  8932     11F9  008A               	movwf	10
  8933     11FA  0E76               	swapf	??_ISR,w
  8934     11FB  0083               	movwf	3
  8935     11FC  0EFE               	swapf	btemp,f
  8936     11FD  0E7E               	swapf	btemp,w
  8937     11FE  0009               	retfie
  8938     11FF                     __end_of_ISR:
  8939                           
  8940                           	psect	intentry
  8941     0004                     __pintentry:	
  8942                           ;incstack = 0
  8943                           ; Regs used in _ISR: [wreg+status,2+status,0+pclath+cstack]
  8944                           
  8945     0004                     interrupt_function:
  8946     007E                     saved_w         set	btemp
  8947     0004  00FE               	movwf	btemp
  8948     0005  0E03               	swapf	3,w
  8949     0006  00F6               	movwf	??_ISR
  8950     0007  080A               	movf	10,w
  8951     0008  00F7               	movwf	??_ISR+1
  8952     0009  160A  118A  29A4   	ljmp	_ISR
  8953                           
  8954                           	psect	text22
  8955     07AD                     __ptext22:	
  8956 ;; *************** function _custom_display *****************
  8957 ;; Defined at:
  8958 ;;		line 244 in file "main.c"
  8959 ;; Parameters:    Size  Location     Type
  8960 ;;  one             1    wreg     unsigned char 
  8961 ;;  two             1    0[COMMON] unsigned char 
  8962 ;;  three           1    1[COMMON] unsigned char 
  8963 ;;  four            1    2[COMMON] unsigned char 
  8964 ;; Auto vars:     Size  Location     Type
  8965 ;;  one             1    5[COMMON] unsigned char 
  8966 ;; Return value:  Size  Location     Type
  8967 ;;                  1    wreg      void 
  8968 ;; Registers used:
  8969 ;;		wreg
  8970 ;; Tracked objects:
  8971 ;;		On entry : 0/0
  8972 ;;		On exit  : 0/0
  8973 ;;		Unchanged: 0/0
  8974 ;; Data sizes:     COMMON   BANK0   BANK1   BANK3   BANK2
  8975 ;;      Params:         3       0       0       0       0
  8976 ;;      Locals:         1       0       0       0       0
  8977 ;;      Temps:          2       0       0       0       0
  8978 ;;      Totals:         6       0       0       0       0
  8979 ;;Total ram usage:        6 bytes
  8980 ;; Hardware stack levels used: 1
  8981 ;; This function calls:
  8982 ;;		Nothing
  8983 ;; This function is called by:
  8984 ;;		_ISR
  8985 ;; This function uses a non-reentrant model
  8986 ;;
  8987                           
  8988     07AD                     _custom_display:	
  8989                           ;psect for function _custom_display
  8990                           
  8991                           
  8992                           ;incstack = 0
  8993                           ; Regs used in _custom_display: [wreg]
  8994                           ;custom_display@one stored from wreg
  8995     07AD  00F5               	movwf	custom_display@one
  8996     07AE                     i1l2723:
  8997                           
  8998                           ;main.c: 244: void custom_display(unsigned char one, unsigned char two, unsigned char th
      +                          ree, unsigned char four);main.c: 245: {;main.c: 246:   PORTB = one;
  8999     07AE  0875               	movf	custom_display@one,w
  9000     07AF  1283               	bcf	3,5	;RP0=0, select bank0
  9001     07B0  1303               	bcf	3,6	;RP1=0, select bank0
  9002     07B1  0086               	movwf	6	;volatile
  9003     07B2                     i1l2725:
  9004                           
  9005                           ;main.c: 247:   RC4 = 0;
  9006     07B2  1207               	bcf	7,4	;volatile
  9007                           
  9008                           ;main.c: 248:   _delay((unsigned long)((1)*(8000000/4000.0)));
  9009     07B3  3003               	movlw	3
  9010     07B4  00F4               	movwf	??_custom_display+1
  9011     07B5  3097               	movlw	151
  9012     07B6  00F3               	movwf	??_custom_display
  9013     07B7                     u482_27:
  9014     07B7  0BF3               	decfsz	??_custom_display,f
  9015     07B8  2FB7               	goto	u482_27
  9016     07B9  0BF4               	decfsz	??_custom_display+1,f
  9017     07BA  2FB7               	goto	u482_27
  9018     07BB  2FBC               	nop2
  9019     07BC                     i1l2727:
  9020                           
  9021                           ;main.c: 249:   RC4 = 1;
  9022     07BC  1283               	bcf	3,5	;RP0=0, select bank0
  9023     07BD  1303               	bcf	3,6	;RP1=0, select bank0
  9024     07BE  1607               	bsf	7,4	;volatile
  9025                           
  9026                           ;main.c: 251:   PORTB = two;
  9027     07BF  0870               	movf	custom_display@two,w
  9028     07C0  0086               	movwf	6	;volatile
  9029     07C1                     i1l2729:
  9030                           
  9031                           ;main.c: 252:   RC7 = 0;
  9032     07C1  1387               	bcf	7,7	;volatile
  9033                           
  9034                           ;main.c: 253:   _delay((unsigned long)((1)*(8000000/4000.0)));
  9035     07C2  3003               	movlw	3
  9036     07C3  00F4               	movwf	??_custom_display+1
  9037     07C4  3097               	movlw	151
  9038     07C5  00F3               	movwf	??_custom_display
  9039     07C6                     u483_27:
  9040     07C6  0BF3               	decfsz	??_custom_display,f
  9041     07C7  2FC6               	goto	u483_27
  9042     07C8  0BF4               	decfsz	??_custom_display+1,f
  9043     07C9  2FC6               	goto	u483_27
  9044     07CA  2FCB               	nop2
  9045     07CB                     i1l2731:
  9046                           
  9047                           ;main.c: 254:   RC7 = 1;
  9048     07CB  1283               	bcf	3,5	;RP0=0, select bank0
  9049     07CC  1303               	bcf	3,6	;RP1=0, select bank0
  9050     07CD  1787               	bsf	7,7	;volatile
  9051                           
  9052                           ;main.c: 256:   PORTB = three;
  9053     07CE  0871               	movf	custom_display@three,w
  9054     07CF  0086               	movwf	6	;volatile
  9055     07D0                     i1l2733:
  9056                           
  9057                           ;main.c: 257:   RC6 = 0;
  9058     07D0  1307               	bcf	7,6	;volatile
  9059                           
  9060                           ;main.c: 258:   _delay((unsigned long)((1)*(8000000/4000.0)));
  9061     07D1  3003               	movlw	3
  9062     07D2  00F4               	movwf	??_custom_display+1
  9063     07D3  3097               	movlw	151
  9064     07D4  00F3               	movwf	??_custom_display
  9065     07D5                     u484_27:
  9066     07D5  0BF3               	decfsz	??_custom_display,f
  9067     07D6  2FD5               	goto	u484_27
  9068     07D7  0BF4               	decfsz	??_custom_display+1,f
  9069     07D8  2FD5               	goto	u484_27
  9070     07D9  2FDA               	nop2
  9071     07DA                     i1l2735:
  9072                           
  9073                           ;main.c: 259:   RC6 = 1;
  9074     07DA  1283               	bcf	3,5	;RP0=0, select bank0
  9075     07DB  1303               	bcf	3,6	;RP1=0, select bank0
  9076     07DC  1707               	bsf	7,6	;volatile
  9077                           
  9078                           ;main.c: 261:   PORTB = four;
  9079     07DD  0872               	movf	custom_display@four,w
  9080     07DE  0086               	movwf	6	;volatile
  9081     07DF                     i1l2737:
  9082                           
  9083                           ;main.c: 262:   RC5 = 0;
  9084     07DF  1287               	bcf	7,5	;volatile
  9085                           
  9086                           ;main.c: 263:   _delay((unsigned long)((1)*(8000000/4000.0)));
  9087     07E0  3003               	movlw	3
  9088     07E1  00F4               	movwf	??_custom_display+1
  9089     07E2  3097               	movlw	151
  9090     07E3  00F3               	movwf	??_custom_display
  9091     07E4                     u485_27:
  9092     07E4  0BF3               	decfsz	??_custom_display,f
  9093     07E5  2FE4               	goto	u485_27
  9094     07E6  0BF4               	decfsz	??_custom_display+1,f
  9095     07E7  2FE4               	goto	u485_27
  9096     07E8  2FE9               	nop2
  9097     07E9                     i1l2739:
  9098                           
  9099                           ;main.c: 264:   RC5 = 1;
  9100     07E9  1283               	bcf	3,5	;RP0=0, select bank0
  9101     07EA  1303               	bcf	3,6	;RP1=0, select bank0
  9102     07EB  1687               	bsf	7,5	;volatile
  9103     07EC                     i1l168:
  9104     07EC  0008               	return
  9105     07ED                     __end_of_custom_display:
  9106     0002                     ___latbits      equ	2
  9107     007E                     btemp           set	126	;btemp
  9108     007E                     btemp0          set	126
  9109     007F                     btemp1          set	127
  9110     007E                     wtemp0          set	126
  9111     007F                     wtemp0a         set	127
  9112     007F                     ttemp0a         set	127
  9113     0080                     ltemp0a         set	128
  9114                           
  9115                           	psect	config
  9116                           
  9117                           ;Config register CONFIG1 @ 0x2007
  9118                           ;	Oscillator Selection bits
  9119                           ;	FOSC = INTRC_NOCLKOUT, INTOSCIO oscillator: I/O function on RA6/OSC2/CLKOUT pin, I/O f
      +                          unction on RA7/OSC1/CLKIN
  9120                           ;	Watchdog Timer Enable bit
  9121                           ;	WDTE = OFF, WDT disabled and can be enabled by SWDTEN bit of the WDTCON register
  9122                           ;	Power-up Timer Enable bit
  9123                           ;	PWRTE = OFF, PWRT disabled
  9124                           ;	RE3/MCLR pin function select bit
  9125                           ;	MCLRE = ON, RE3/MCLR pin function is MCLR
  9126                           ;	Code Protection bit
  9127                           ;	CP = OFF, Program memory code protection is disabled
  9128                           ;	Data Code Protection bit
  9129                           ;	CPD = OFF, Data memory code protection is disabled
  9130                           ;	Brown Out Reset Selection bits
  9131                           ;	BOREN = ON, BOR enabled
  9132                           ;	Internal External Switchover bit
  9133                           ;	IESO = OFF, Internal/External Switchover mode is disabled
  9134                           ;	Fail-Safe Clock Monitor Enabled bit
  9135                           ;	FCMEN = OFF, Fail-Safe Clock Monitor is disabled
  9136                           ;	Low Voltage Programming Enable bit
  9137                           ;	LVP = OFF, RB3 pin has digital I/O, HV on MCLR must be used for programming
  9138                           ;	In-Circuit Debugger Mode bit
  9139                           ;	DEBUG = 0x1, unprogrammed default
  9140     2007                     	org	8199
  9141     2007  23F4               	dw	9204
  9142                           
  9143                           ;Config register CONFIG2 @ 0x2008
  9144                           ;	Brown-out Reset Selection bit
  9145                           ;	BOR4V = BOR21V, Brown-out Reset set to 2.1V
  9146                           ;	Flash Program Memory Self Write Enable bits
  9147                           ;	WRT = OFF, Write protection off
  9148     2008                     	org	8200
  9149     2008  3EFF               	dw	16127

Data Sizes:
    Strings     0
    Constant    0
    Data        72
    BSS         42
    Persistent  0
    Stack       0

Auto Spaces:
    Space          Size  Autos    Used
    COMMON           14      8      14
    BANK0            80     80      80
    BANK1            80     75      78
    BANK3            96     18      79
    BANK2            96      0      44

Pointer List with Targets:

    splitFloat@d_1	PTR unsigned char  size(1) Largest target is 1
		 -> ts4(BANK3[1]), 

    splitFloat@d_10	PTR unsigned char  size(1) Largest target is 1
		 -> ts3(BANK3[1]), 

    splitFloat@d_100	PTR unsigned char  size(1) Largest target is 1
		 -> ts2(BANK3[1]), 

    splitFloat@d_1000	PTR unsigned char  size(1) Largest target is 1
		 -> ts1(BANK3[1]), 


Critical Paths under _main in COMMON

    None.

Critical Paths under _ISR in COMMON

    _ISR->_custom_display

Critical Paths under _main in BANK0

    _splitFloat->___awmod
    ___fltol->___fladd
    ___flsub->___xxtofl
    ___awmod->___flmul
    ___awdiv->___fltol
    _getVoltage->___flmul
    _getAmps->___flmul
    ___xxtofl->___fltol
    ___flmul->___flsub
    ___fldiv->___flmul

Critical Paths under _ISR in BANK0

    None.

Critical Paths under _main in BANK1

    _main->_splitFloat
    _splitFloat->___flge
    ___flge->_getVoltage
    _getVoltage->___fldiv
    _getAmps->___fldiv

Critical Paths under _ISR in BANK1

    None.

Critical Paths under _main in BANK3

    _main->_splitFloat

Critical Paths under _ISR in BANK3

    None.

Critical Paths under _main in BANK2

    None.

Critical Paths under _ISR in BANK2

    None.

Call Graph Tables:

 ---------------------------------------------------------------------------------
 (Depth) Function   	        Calls       Base Space   Used Autos Params    Refs
 ---------------------------------------------------------------------------------
 (0) _main                                                10    10      0   14698
                                             65 BANK1     10    10      0
                           _ADC_Init
                             ___flge
                            ___flsub
                            _getAmps
                         _getVoltage
                          _gpio_conf
                      _motor_forward
                      _motor_reverse
                         _motor_stop
                         _splitFloat
                         _timer_conf
 ---------------------------------------------------------------------------------
 (1) _timer_conf                                           0     0      0       0
 ---------------------------------------------------------------------------------
 (1) _splitFloat                                          28    20      8    5796
                                             55 BANK1     10     2      8
                                              0 BANK3     18    18      0
                            ___awdiv
                            ___awmod
                             ___flge
                            ___flmul
                            ___flsub
                            ___fltol
                           ___xxtofl
 ---------------------------------------------------------------------------------
 (2) ___fltol                                             10     6      4     240
                                             20 BANK0     10     6      4
                          __Umul8_16 (ARG)
                            ___fladd (ARG)
 ---------------------------------------------------------------------------------
 (2) ___flsub                                              8     0      8    2043
                                             44 BANK0      8     0      8
                            ___fladd
                            ___fltol (ARG)
                           ___xxtofl (ARG)
 ---------------------------------------------------------------------------------
 (3) ___fladd                                             20    12      8    1988
                                              0 BANK0     20    12      8
 ---------------------------------------------------------------------------------
 (2) ___flge                                              12     4      8     198
                                             43 BANK1     12     4      8
                         _getVoltage (ARG)
 ---------------------------------------------------------------------------------
 (2) ___awmod                                              6     2      4     322
                                             78 BANK0      2     2      0
                                              0 BANK1      4     0      4
                            ___awdiv (ARG)
                            ___flmul (ARG)
                            ___flsub (ARG)
                            ___fltol (ARG)
                           ___xxtofl (ARG)
 ---------------------------------------------------------------------------------
 (2) ___awdiv                                              8     4      4     308
                                             30 BANK0      8     4      4
                            ___fltol (ARG)
 ---------------------------------------------------------------------------------
 (1) _motor_stop                                           0     0      0       0
 ---------------------------------------------------------------------------------
 (1) _motor_reverse                                        0     0      0       0
 ---------------------------------------------------------------------------------
 (1) _motor_forward                                        0     0      0       0
 ---------------------------------------------------------------------------------
 (1) _gpio_conf                                            0     0      0       0
 ---------------------------------------------------------------------------------
 (1) _getVoltage                                          17    13      4    3237
                                             26 BANK1     17    13      4
                            ___fldiv
                            ___flmul
                           ___xxtofl
                            _readAdc
 ---------------------------------------------------------------------------------
 (1) _getAmps                                             17    13      4    3237
                                             26 BANK1     17    13      4
                            ___fldiv
                            ___flmul
                           ___xxtofl
                            _readAdc
 ---------------------------------------------------------------------------------
 (2) _readAdc                                              4     2      2      29
                                              0 BANK0      4     2      2
 ---------------------------------------------------------------------------------
 (2) ___xxtofl                                            14    10      4     342
                                             30 BANK0     14    10      4
                            ___fltol (ARG)
 ---------------------------------------------------------------------------------
 (2) ___flmul                                             26    18      8    1618
                                             52 BANK0     26    18      8
                          __Umul8_16
                            ___flsub (ARG)
                            ___fltol (ARG)
                           ___xxtofl (ARG)
 ---------------------------------------------------------------------------------
 (3) __Umul8_16                                            9     7      2     139
                                              0 BANK0      9     7      2
 ---------------------------------------------------------------------------------
 (2) ___fldiv                                             26    18      8    1126
                                              0 BANK1     26    18      8
                            ___flmul (ARG)
                           ___xxtofl (ARG)
 ---------------------------------------------------------------------------------
 (1) _ADC_Init                                             2     2      0       0
                                              0 BANK0      2     2      0
 ---------------------------------------------------------------------------------
 Estimated maximum stack depth 3
 ---------------------------------------------------------------------------------
 (Depth) Function   	        Calls       Base Space   Used Autos Params    Refs
 ---------------------------------------------------------------------------------
 (4) _ISR                                                  2     2      0      98
                                              6 COMMON     2     2      0
                     _custom_display
 ---------------------------------------------------------------------------------
 (5) _custom_display                                       6     3      3      98
                                              0 COMMON     6     3      3
 ---------------------------------------------------------------------------------
 Estimated maximum stack depth 5
 ---------------------------------------------------------------------------------

 Call Graph Graphs:

 _main (ROOT)
   _ADC_Init
   ___flge
     _getVoltage (ARG)
       ___fldiv
         ___flmul (ARG)
           __Umul8_16
           ___flsub (ARG)
             ___fladd
             ___fltol (ARG)
               __Umul8_16 (ARG)
               ___fladd (ARG)
             ___xxtofl (ARG)
               ___fltol (ARG)
           ___fltol (ARG)
           ___xxtofl (ARG)
         ___xxtofl (ARG)
       ___flmul
       ___xxtofl
       _readAdc
   ___flsub
   _getAmps
     ___fldiv
     ___flmul
     ___xxtofl
     _readAdc
   _getVoltage
   _gpio_conf
   _motor_forward
   _motor_reverse
   _motor_stop
   _splitFloat
     ___awdiv
       ___fltol (ARG)
     ___awmod
       ___awdiv (ARG)
       ___flmul (ARG)
       ___flsub (ARG)
       ___fltol (ARG)
       ___xxtofl (ARG)
     ___flge
     ___flmul
     ___flsub
     ___fltol
     ___xxtofl
   _timer_conf

 _ISR (ROOT)
   _custom_display

Address spaces:
Name               Size   Autos  Total    Usage
BANK3               96     18      79     82.3%
BITBANK3            96      0       0      0.0%
BANK2               96      0      44     45.8%
BITBANK2            96      0       0      0.0%
BANK1               80     75      78     97.5%
BITBANK1            80      0       0      0.0%
BANK0               80     80      80    100.0%
BITBANK0            80      0       0      0.0%
COMMON              14      8      14    100.0%
BITCOMMON           14      0       0      0.0%
DATA                 0      0     297      0.0%
STACK                0      0       0      0.0%


Microchip Technology PIC Macro Assembler V3.10 build 20250813170317 
Symbol Table                                                                                   Tue Apr 28 09:52:22 2026

            getVoltage@i 00C9          ??_motor_forward 0020             ___fldiv@aexp 00B9  
           ___fldiv@bexp 00B8                        pc 0002             ___fldiv@sign 00B1  
           getVoltage@ch 00C4          ??_motor_reverse 0020             ___awdiv@sign 0043  
                     fsr 0004            getVoltage@adc 00C2      __Umul8_16@word_mpld 0026  
          getVoltage@sum 00C5                      l201 1635                      l141 117A  
                    l206 156B                      l230 019C                      l135 112E  
                    l231 0179                      l144 10F3                      l138 116E  
                    l147 10D8                      l165 0FFF                      l190 10AE  
                    l247 0303                      l504 1263                      l193 10C0  
                    l196 080B                      l532 13D2                      l517 12D1  
                    l710 17FF                      l552 1332                      l537 13EB  
                    l529 1366                      l545 1347                      l730 17EB  
                    l555 1347                      l732 17F7                      l724 1779  
                    l708 168B                      l652 05BA                      l805 146B  
                    l806 1477                      l647 0589                      l760 0B6F  
                    l656 0639                      l673 06FF                      l665 07AC  
                    l754 0AEB                      l658 0614                      l683 0746  
                    l748 0B79                      l677 0723                      l694 07A2  
                    l686 0782                      l767 1191                      l695 07AC  
                    l792 1410                      l769 11A3                      l793 1421  
                    l794 14A1                      l698 1152                      l798 144F  
                    _GIE 005F                      _RA4 002C                      _RC0 0038  
                    _RA5 002D                      _RC1 0039                      _RA6 002E  
                    _RC2 003A                      _RA7 002F                      _RC3 003B  
                    _RC4 003C                      _RC5 003D                      _RC6 003E  
                    _RC7 003F                      _ISR 11A4                      _ts1 01B0  
                    _ts2 01AF                      _ts3 01AE                      _ts4 01AD  
                    fsr0 0004                      indf 0000             ___awmod@sign 006F  
           ___flmul@aexp 0066             ___flmul@bexp 0067             ___flmul@sign 0061  
           ___flmul@temp 006C             ___flmul@prod 0068           _splitFloat$959 01DB  
                   ?_ISR 0070             ___fltol@exp1 003D                     l2001 05B2  
                   l2011 05CA                     l2003 05C0                     l2101 0715  
                   l2021 05D4                     l2013 05CC                     l2005 05C4  
                   l2111 072D                     l2103 071E                     l2031 05DE  
                   l2023 05D6                     l2015 05CE                     l2007 05C6  
                   l2201 1223                     l2121 073D                     l2113 0732  
                   l2105 0722                     l2041 05FC                     l2033 05E0  
                   l2025 05D8                     l2017 05D0                     l2009 05C8  
                   l3001 02BA                     l2211 1247                     l2203 122A  
                   l2131 075E                     l2123 0743                     l2107 0727  
                   l2115 0734                     l2051 0626                     l2043 0618  
                   l2035 05E2                     l2027 05DA                     l2019 05D2  
                   l3011 030A                     l3003 02D8                     l2221 125F  
                   l2213 1248                     l2205 122C                     l2141 0794  
                   l2133 0762                     l2109 072B                     l2117 0738  
                   l2053 062F                     l2045 061F                     l2029 05DC  
                   l2037 05E4                     l3021 0357                     l3013 0341  
                   l3005 02FB                     l2215 124F                     l2207 1230  
                   l2231 1272                     l2151 07A7                     l2143 0799  
                   l2135 0780                     l2127 074B                     l2119 0739  
                   l2071 0671                     l2063 064B                     l2047 0621  
                   l2055 0631                     l2039 05E5                     l3031 0378  
                   l3023 0361                     l3015 0346                     l3007 0306  
                   l2401 1709                     l2161 118B                     l2209 1241  
                   l2217 1255                     l2241 128C                     l2233 1276  
                   l2225 1264                     l2153 07AB                     l2145 079A  
                   l2137 0787                     l2129 0750                     l2073 0673  
                   l2065 0662                     l2057 063D                     l2081 0684  
                   l2049 0625                     l2321 1133                     l2313 1327  
                   l2305 1310                     l3041 03B5                     l3033 0387  
                   l3025 0367                     l3017 034A                     l2411 1732  
                   l2403 171B                     l2331 1640                     l2163 119A  
                   l2155 117E                     l2171 1163                     l2219 125A  
                   l2251 12AF                     l2243 1293                     l2235 127C  
                   l2227 1267                     l2147 079E                     l2139 078C  
                   l2091 06E2                     l2083 069A                     l2075 0677  
                   l2067 0666                     l2059 0642                     l2315 1337  
                   l2307 1320                     l3051 03DB                     l3035 039B  
                   l3027 036C                     l3043 03BA                     l3019 0351  
                   l2421 174A                     l2413 173A                     l2405 171C  
                   l2341 1657                     l2333 1644                     l2325 1636  
                   l2165 119F                     l2157 1180                     l2501 0879  
                   l2173 116A                     l2181 11FF                     l2253 12B6  
                   l2245 1297                     l2237 1281                     l2229 126D  
                   l2149 07A0                     l2085 06D8                     l2093 06F1  
                   l2077 0678                     l2069 066A                     l2317 133C  
                   l3053 03EF                     l3045 03BF                     l3037 03A0  
                   l3029 0373                     l3061 03FB                     l2431 1762  
                   l2423 1753                     l2415 173C                     l2407 172A  
                   l2351 1669                     l2343 1658                     l2335 1645  
                   l2327 163A                     l2159 1187                     l2511 0895  
                   l2503 0881                     l2175 116D                     l2191 1211  
                   l2183 1202                     l2247 129D                     l2239 1287  
                   l2255 12BE                     l2271 1386                     l2263 1348  
                   l2095 0707                     l2087 06DA                     l2079 0681  
                   l2319 112F                     l3071 041B                     l3063 0403  
                   l3055 03F4                     l3047 03C7                     l3039 03B3  
                   l2441 1791                     l2433 1776                     l2417 1745  
                   l2425 1759                     l2409 172C                     l2361 1680  
                   l2353 166D                     l2337 164A                     l2345 165A  
                   l2329 163C                     l2601 0B65                     l2521 08D4  
                   l2505 0883                     l2177 1172                     l2169 1156  
                   l2193 1216                     l2185 1206                     l2257 12C4  
                   l2249 12A9                     l2273 13AA                     l2265 135E  
                   l2097 070C                     l2089 06DD                     l3081 04E0  
                   l3073 04A2                     l3065 0409                     l3057 03F6  
                   l3049 03CC                     l2451 17CF                     l2443 1795  
                   l2427 175D                     l2419 1749                     l2371 16A1  
                   l2363 1681                     l2355 166E                     l2347 1662  
                   l2339 164F                     l2603 0B69                     l2531 095B  
                   l2523 08F0                     l2515 089E                     l2507 088B  
                   l2611 13EF                     l2195 1218                     l2187 120B  
                   l2259 12CB                     l2275 13AE                     l2267 137A  
                   l2291 12F9                     l2283 12D2                     l3091 052B  
                   l3083 04E7                     l3075 04BB                     l3067 0410  
                   l3059 03FA                     l2461 17F3                     l2453 17DE  
                   l2445 17AE                     l2437 177E                     l2429 175E  
                   l2381 16B8                     l2357 1673                     l2365 1683  
                   l2349 1665                     l2605 0B6A                     l2541 09C8  
                   l2533 0969                     l2525 091A                     l2517 08AC  
                   l2509 0890                     l2613 13F4                     l2197 121A  
                   l2189 120D                     l2277 13E8                     l2269 1382  
                   l2293 12FA                     l2285 12DD                     l2701 0D72  
                   l3093 054E                     l3085 0502                     l3077 04D6  
                   l3069 0415                     l2463 17F5                     l2455 17E2  
                   l2439 1783                     l2447 17B4                     l2391 16E4  
                   l2383 16CA                     l2367 1693                     l2375 16AA  
                   l2359 1678                     l2607 0B71                     l2551 0A6F  
                   l2543 09E5                     l2535 0986                     l2527 0936  
                   l2519 08B9                     l2471 083C                     l2631 1446  
                   l2623 1424                     l2615 13F8                     l2199 1220  
                   l2279 13EA                     l2295 1302                     l2711 0EBF  
                   l2703 0D81                     l3095 0552                     l3087 0508  
                   l3079 04DB                     l2457 17EA                     l2449 17C1  
                   l2393 16E9                     l2385 16D2                     l2377 16AF  
                   l2369 169F                     l2561 0ABB                     l2553 0A97  
                   l2545 0A10                     l2537 0994                     l2529 0952  
                   l2481 084C                     l2473 083E                     l2641 1479  
                   l2633 1456                     l2625 142F                     l2617 1408  
                   l2297 1304                     l2289 12E6                     l2721 0FF0  
                   l2713 0F83                     l2705 0D91                     l3089 050D  
                   l2459 17EF                     l2395 16FB                     l2387 16DA  
                   l2571 0AD0                     l2563 0ABC                     l2555 0AA0  
                   l2547 0A1E                     l2539 09B1                     l2491 0866  
                   l2483 0851                     l2475 0842                     l2643 148F  
                   l2635 1461                     l2627 1436                     l2619 1418  
                   l2299 1308                     l2715 0FC3                     l2707 0DAC  
                   l2661 1123                     l2653 1110                     l2397 16FF  
                   l2389 16E2                     l2581 0AF5                     l2573 0AD4  
                   l2565 0AC5                     l2557 0AAE                     l2549 0A49  
                   l2493 086A                     l2485 0859                     l2477 0846  
                   l2469 0838                     l2645 1494                     l2637 1465  
                   l2629 1438                     l2741 10AA                     l2717 0FD1  
                   l2709 0E3B                     l2901 00D3                     l2663 1124  
                   l2655 1119                     l2399 1700                     l2591 0B33  
                   l2583 0B03                     l2575 0AE8                     l2559 0AB7  
                   l2567 0ACB                     l2495 086E                     l2487 085B  
                   l2479 0847                     l2647 1498                     l2639 146F  
                   l2751 1577                     l2671 10EB                     l2743 10B7  
                   l2719 0FE1                     l2911 00EE                     l2903 00D6  
                   l2657 111A                     l2593 0B3E                     l2585 0B07  
                   l2569 0ACF                     l2497 086F                     l2489 0863  
                   l2649 1499                     l2761 15AD                     l2681 10F0  
                   l2673 10EC                     l2665 10D9                     l2745 10BF  
                   l1961 0563                     l2913 00F3                     l2905 00DD  
                   l2921 011F                     l2659 111D                     l2595 0B4D  
                   l2587 0B20                     l2579 0AF0                     l2499 0874  
                   l2771 14A5                     l2763 15B5                     l2683 10F1  
                   l2675 10ED                     l2667 10E7                     l2747 0801  
                   l1971 0576                     l1963 0567                     l2691 0BD3  
                   l2931 0183                     l2923 0124                     l2915 0102  
                   l2907 00E3                     l2851 004B                     l2597 0B57  
                   l2589 0B26                     l2781 14DC                     l2773 14AD  
                   l2765 15C2                     l2757 1579                     l2749 156F  
                   l2677 10EE                     l2669 10E8                     l1981 058D  
                   l1973 057E                     l1965 056B                     l1957 055D  
                   l2693 0C57                     l2685 10C1                     l2933 018B  
                   l2925 0142                     l2941 01A7                     l2917 0116  
                   l2909 00E8                     l2861 0059                     l2853 0050  
                   l2599 0B59                     l2783 14E3                     l2767 15D9  
                   l2759 15A6                     l2679 10EF                     l1991 059D  
                   l1983 0593                     l1975 057F                     l1967 056C  
                   l1959 0561                     l2695 0D1B                     l2687 0B7A  
                   l2951 01FB                     l2943 01AF                     l2935 018D  
                   l2927 0169                     l2919 011B                     l2871 007D  
                   l2863 005B                     l2855 0054                     l2785 14EB  
                   l1993 05A2                     l1985 0594                     l1969 0571  
                   l1977 0581                     l2697 0D5B                     l2689 0B95  
                   l2961 021A                     l2953 0200                     l2945 01CD  
                   l2937 01A4                     l2929 016E                     l2881 009B  
                   l2873 0087                     l2865 006A                     l2857 0056  
                   l2849 0041                     l2787 14F8                     l2779 14AF  
                   l1995 05A7                     l1987 0598                     l1979 058B  
                   l2699 0D64                     l2971 0233                     l2963 0220  
                   l2955 0206                     l2947 01F0                     l2939 01A5  
                   l2891 00C6                     l2883 00A1                     l2875 008D  
                   l2867 0070                     l2859 0058                     l2789 150F  
                   l1997 05AF                     l1989 059C                     l2973 023D  
                   l2981 024F                     l2957 0210                     l2965 0221  
                   l2949 01F4                     l2893 00CA                     l2885 00A4  
                   l2877 0091                     l2869 0076                     l1999 05B0  
                   l2991 02A0                     l2983 0257                     l2975 0243  
                   l2967 0226                     l2959 0216                     l2895 00CB  
                   l2887 00AA                     l2879 0098                     l2985 026A  
                   l2977 024A                     l2969 022D                     l2993 02A2  
                   l2897 00CC                     l2889 00AC                     l2995 02A8  
                   l2987 027C                     l2979 024D                     l2899 00CD  
                   l2997 02AE                     l2989 028E                     l2999 02B4  
                   _ADON 00F8                     u3010 12BE                     u3011 12BD  
                   u3020 12C4                     u3100 12DD                     u3021 12C3  
                   u3005 12B0                     u3101 12DC                     u3030 135E  
                   u3110 12F4                     u3031 135D                     u3200 1644  
                   u3040 137A                     u2400 05C0                     u3120 1308  
                   u4000 0B95                     u3201 1643                     u3041 1379  
                   u2401 05BF                     u3121 1307                     u4001 0B94  
                   u3210 164A                     u3050 1386                     u2410 05C4  
                   u2330 056B                     u3130 130F                     u4010 0DAC  
                   u3211 1649                     u3051 1385                     u2411 05C3  
                   u2331 056A                     u3131 130E                     u3115 12EF  
                   u4011 0DAB                     u3220 164F                     u2500 0642  
                   u2420 05FC                     u2340 0571                     u3221 164E  
                   u4021 1598                     u3061 1395                     u2501 0641  
                   u2421 05FB                     u2341 0570                     u3310 16FF  
                   u3230 166D                     u4030 15C2                     u4022 159F  
                   u3070 13AE                     u3062 1396                     u2430 0607  
                   u2350 0576                     u3150 131F                     u3311 16FE  
                   u3231 166C                     u4031 15C1                     u4023 15A6  
                   u3071 13AD                     u3063 139B                     u2511 0654  
                   u2431 0605                     u2351 0575                     u3151 131E  
                   u3400 1762                     u3240 1673                     u4040 15D2  
                   u3064 139C                     u2600 0707                     u2520 0666  
                   u2512 065B                     u2440 0608                     u2360 0593  
                   u3160 1326                     u4200 00A1                     u3401 1761  
                   u3305 16F4                     u3241 1672                     u3081 13BD  
                   u3065 13A1                     u2601 0706                     u2521 0665  
                   u2513 0662                     u2425 05F8                     u2361 0592  
                   u3161 1325                     u3145 1311                     u4201 00A0  
                   u3410 1776                     u3330 171B                     u3250 1678  
                   u3090 13E8                     u3082 13BE                     u3066 13A2  
                   u2610 070C                     u2530 066A                     u2450 0618  
                   u2370 059C                     u4210 00AA                     u3411 1775  
                   u3331 171A                     u3251 1677                     u4051 14CE  
                   u4035 15BE                     u3091 13E7                     u3083 13C3  
                   u2611 070B                     u2531 0669                     u2451 0617  
                   u2371 059B                     u4211 00A9                     u3420 177D  
                   u3340 1732                     u3260 1693                     u3500 084C  
                   u4060 14F8                     u4052 14D5                     u3084 13C4  
                   u2700 0750                     u2540 0677                     u2460 0625  
                   u2380 05A2                     u3180 1337                     u4300 018A  
                   u3421 177C                     u3341 1731                     u3325 1702  
                   u3261 1692                     u3501 084B                     u4061 14F7  
                   u4053 14DC                     u4045 15CD                     u3085 13C9  
                   u2701 074F                     u2541 0676                     u2461 0624  
                   u2381 05A1                     u3181 1336                     u3430 1783  
                   u3350 173A                     u3270 16AF                     u3510 0851  
                   u4070 1508                     u3086 13CA                     u2710 0762  
                   u2630 0722                     u2390 05A7                     u3190 133C  
                   u4310 01AF                     u4230 00D3                     u3431 1782  
                   u3351 1739                     u3335 1717                     u3271 16AE  
                   u3511 0850                     u3095 13E4                     u2711 0761  
                   u2631 0721                     u2391 05A6                     u3191 133B  
                   u3175 1329                     u4311 01AE                     u4231 00D2  
                   u3440 1795                     u3280 16E9                     u3520 086E  
                   u2720 0771                     u2640 0727                     u2560 069A  
                   u2480 0639                     u4400 024A                     u4320 01FB  
                   u4240 00DD                     u4160 0076                     u3441 1794  
                   u3281 16E8                     u3601 0944                     u3521 086D  
                   u4065 14F4                     u2641 0726                     u2625 0717  
                   u2561 0699                     u2481 0638                     u4401 0249  
                   u4321 01FA                     u4241 00DC                     u4225 00AF  
                   u4161 0075                     u3450 17A4                     u3370 1749  
                   u2810 119F                     u3602 094B                     u3530 0874  
                   u2730 0780                     u2650 0732                     u2490 063D  
                   u4330 0200                     u4250 00EE                     u4170 007D  
                   u3371 1748                     u2811 119E                     u3603 0952  
                   u3531 0873                     u4075 1503                     u2731 077F  
                   u2651 0731                     u2571 06B1                     u2563 0696  
                   u2555 067A                     u2491 063C                     u2475 0628  
                   u4331 01FF                     u4251 00ED                     u4171 007C  
                   u3460 17C1                     u3700 0A7D                     u3540 0879  
                   u2900 1241                     u2740 0787                     u2660 0738  
                   u2580 06C5                     u2572 06B2                     u4500 0357  
                   u4340 0206                     u4260 0124                     u4180 008D  
                   u3461 17C0                     u3365 173E                     u2805 1192  
                   u3621 0978                     u3541 0878                     u2901 1240  
                   u2741 0786                     u2725 076C                     u2661 0737  
                   u2581 06C6                     u2573 06B7                     u4501 0356  
                   u4341 0205                     u4261 0123                     u4181 008C  
                   u3470 17DE                     u3390 175D                     u3622 097F  
                   u3550 0890                     u2830 1172                     u2750 078C  
                   u2670 073D                     u2590 06E2                     u2582 06CB  
                   u2574 06B8                     u4510 0367                     u4350 0216  
                   u4270 0169                     u4190 0098                     u3471 17DD  
                   u3455 179F                     u3391 175C                     u3295 16EB  
                   u3711 0A89                     u3631 09A3                     u3623 0986  
                   u3615 0954                     u3551 088F                     u2831 1171  
                   u2751 078B                     u2671 073C                     u2591 06E1  
                   u2583 06CC                     u2575 06BD                     u4511 0366  
                   u4415 025C                     u4351 0215                     u4271 0168  
                   u4191 0097                     u3480 17F3                     u3800 0AF5  
                   u3712 0A90                     u3632 09AA                     u3560 0895  
                   u2920 1255                     u2840 1206                     u2760 0799  
                   u2680 0743                     u2576 06BE                     u4600 04BB  
                   u4520 036C                     u4360 0220                     u4280 016E  
                   u3481 17F2                     u3465 17BD                     u3385 174C  
                   u3801 0AF4                     u3713 0A97                     u3705 0A78  
                   u3633 09B1                     u3561 0894                     u2825 115B  
                   u2921 1254                     u2905 123D                     u2841 1205  
                   u2761 0798                     u2681 0742                     u4601 04BA  
                   u4521 036B                     u4425 026F                     u4361 021F  
                   u4281 016D                     u3810 0B07                     u3490 0846  
                   u2930 125A                     u2850 1211                     u2770 079E  
                   u2690 074A                     u4610 04D6                     u4530 0373  
                   u4450 02A8                     u4370 022D                     u4290 0189  
                   u3475 17DA                     u3811 0B06                     u3651 09D7  
                   u3571 08E2                     u3491 0845                     u2931 1259  
                   u2915 1249                     u2851 1210                     u2771 079D  
                   u2691 0749                     u4611 04D5                     u4531 0372  
                   u4451 02A7                     u4435 0281                     u4371 022C  
                   u4291 0187                     _PEIE 005E                     u3820 0B16  
                   u3740 0ABB                     u3652 09DE                     u3572 08E9  
                   u3900 1435                     u2860 1220                     u2940 126D  
                   u2780 07AB                     u4620 04E7                     u4540 03BF  
                   u4460 02B4                     u4380 0233                     u3741 0ABA  
                   u3725 0A99                     u3661 0A02                     u3653 09E5  
                   u3645 09B3                     u3581 08FE                     u3573 08F0  
                   u3901 1434                     u2861 121F                     u2941 126C  
                   u2781 07AA                     u4621 04E6                     u4541 03BE  
                   u4461 02B3                     u4445 0293                     u4381 0232  
                   u2790 118B                     u3830 0B33                     u3662 0A09  
                   u3582 0905                     u2950 127C                     u4630 0502  
                   u4550 03C7                     u4470 02FB                     u4390 0243  
                   u2791 118A                     u3831 0B32                     u3735 0AB0  
                   u3671 0A2D                     u3663 0A10                     u3591 0928  
                   u3583 090C                     u2951 127B                     u4631 0501  
                   u4551 03C6                     u4471 02FA                     u4391 0242  
                   u3840 0B4D                     u3760 0ACF                     u3680 0A55  
                   u3672 0A34                     u3592 092F                     u3920 1455  
                   u2880 1230                     u2960 1287                     u4640 0559  
                   u4560 0409                     u4480 0341                     u3841 0B4C  
                   u3825 0B11                     u3761 0ACE                     u3673 0A3B  
                   u3593 0936                     u3921 1454                     u2881 122F  
                   u2961 1286                     u4641 0558                     u4561 0408  
                   u4481 0340                     u3850 0B69                     u3770 0AD4  
                   u4570 0410                     u4490 0351                     u3851 0B68  
                   u3835 0B2F                     u3771 0AD3                     u3755 0ABE  
                   u3691 0A61                     u3915 1447                     u2875 1224  
                   u4571 040F                     u4491 0350                     u4707 020C  
                   u3780 0AE8                     u3692 0A68                     u3940 1465  
                   u3860 13F4                     u2980 129D                     u4580 0415  
                   u3845 0B49                     u3781 0AE7                     u3693 0A6F  
                   u3685 0A50                     u3941 1464                     u3861 13F3  
                   u2981 129C                     u4581 0414                     u4717 0239  
                   u3790 0AEF                     u3950 146B                     u3870 13F8  
                   u2990 12A9                     u4590 041B                     u3791 0AEE  
                   u3951 146A                     u3935 145A                     u3871 13F7  
                   u4807 1167                     u2895 1231                     u2991 12A8  
                   u2975 128D                     u4591 041A                     u4727 035D  
                   u3960 146F                     u3880 1418                     u4817 112A  
                   u3961 146E                     u3881 1417                     u4737 0380  
                   u4657 0063                     u3970 1484                     u2995 12A5  
                   u4747 0394                     u4667 0083                     u3980 1494  
                   u3981 1493                     u4757 03A8                     u4677 00FB  
                   u3990 1498                     u3991 1497                     u3975 147F  
                   u3895 1427                     u4767 03D4                     u4687 010F  
                   u4777 03E8                     u4697 0195                     u4787 15AA  
                   u4797 14E0                     _TMR0 0001                     _main 0041  
                   _mode 00ED                     _duty 01C9                     btemp 007E  
       __end_of_ADC_Init 112F                     start 000C          ___fldiv@new_exp 00B2  
            main@stopped 01A0         _selected_voltage 01C5          main@system_done 00EA  
                  ??_ISR 0076                    ISR@s1 01A6                    ISR@s2 01A5  
                  ISR@s3 01A4                    ISR@s4 01A3            ___fltol@sign1 003C  
        __end_of___fladd 07AD                    ?_main 0070          __end_of___fldiv 1800  
        __end_of___awdiv 1264          __end_of___awmod 12D2          __end_of___flmul 0B7A  
        __end_of___flsub 1153          __end_of___fltol 1348                    _ANSEL 0188  
        ___awdiv@divisor 003E                    _T1CON 0010                    i1l173 11D3  
                  i1l175 11D0                    i1l168 07EC                    i1l187 11F8  
        ___awdiv@counter 0042                    _TMR1H 000F                    _TMR1L 000E  
                  _PORTB 0006                    _TRISB 0086          __end_of_getAmps 156C  
        __end_of_readAdc 117B                    _modes 0110                    _stage 007C  
                  btemp0 007E                    btemp1 007F                    pclath 000A  
       ??_custom_display 0073                    status 0003                    wtemp0 007E  
      custom_display@one 0075        custom_display@two 0070          __initialization 000F  
           __end_of_main 055D                   ??_main 00E1                   _ADCON0 001F  
                 _ADRESH 001E                   _ADRESL 009E         ___awdiv@dividend 0040  
                 _ANSELH 0189                   i1l2731 07CB                   i1l2723 07AE  
                 i1l2733 07D0                   i1l2725 07B2                   i1l2821 11AA  
                 i1l2735 07DA                   i1l2727 07BC                   i1l2831 11D7  
                 i1l2823 11AF                   i1l2737 07DF                   i1l2729 07C1  
                 i1l2841 11E5                   i1l2833 11DE                   i1l2825 11BE  
                 i1l2739 07E9                   i1l2835 11DF                   i1l2843 11E7  
                 i1l2827 11C0                   i1l2819 11A4                   i1l2845 11F3  
                 i1l2837 11E1                   i1l2829 11CC                   i1l2847 11F4  
                 i1l2839 11E3                   u411_20 11AA                   u411_21 11A9  
                 u412_20 11BE                   u412_21 11BD                   u413_20 11CC  
                 u413_21 11CB                   u413_25 11C8                   u414_20 11D7  
                 u414_21 11D6                   u415_20 11DE                   u415_21 11DD  
                 u482_27 07B7                   u483_27 07C6                   u484_27 07D5  
                 u485_27 07E4                   _TMR0IF 005A                   _TMR1IE 0460  
                 _TMR1IF 0060         __end_of___xxtofl 14A2                   ___flge 1348  
              ??___fladd 0028                ??___fldiv 00A8                ??___awdiv 0042  
              ??___awmod 006E                ??___flmul 005C                ??___flsub 0054  
              ??___fltol 0038         ___awdiv@quotient 0044          ___awmod@divisor 00A0  
              ??_getAmps 00BE          ___awmod@counter 006E            main@set_state 01A2  
              ??_readAdc 0022                   ltemp0a 0080                ?_ADC_Init 0070  
                 saved_w 007E                   ttemp0a 007F                   wtemp0a 007F  
             ___flge@ff1 00CB               ___flge@ff2 00CF             ___xxtofl@arg 0048  
           ___xxtofl@exp 0047             ___xxtofl@val 003E       custom_display@four 0072  
__end_of__initialization 003D               ___fltol@f1 0034           _selected_index 007D  
        splitFloat@d_100 00DC           __pcstackCOMMON 0070             __pidataBANK2 080C  
           __pidataBANK3 10F4          splitFloat@v_one 01CD          splitFloat@v_ten 01D3  
             ??_ADC_Init 0020               __pbssBANK1 00EB               __pbssBANK3 0190  
          _current_limit 019C            splitFloat@d_1 00DE            splitFloat@val 00D7  
      __end_of__Umul8_16 11A4               __pmaintext 0041                  ?___flge 00CB  
             __pintentry 0004    __end_of_motor_forward 10C1    __end_of_motor_reverse 080C  
             _getVoltage 156C                ?___xxtofl 003E                  _SS1_BCD 01B1  
                _SS2_BCD 0128               _last_limit 01CC                  ___fladd 055D  
                ___fldiv 1636                  ___awdiv 11FF                  ___awmod 1264  
                ___flmul 0838                  ___flsub 112F                  ___fltol 12D2  
                _getAmps 14A2                  __ptext1 10C1                  __ptext2 0B7A  
                __ptext3 12D2                  __ptext4 112F                  __ptext5 055D  
                __ptext6 1348                  __ptext7 1264                  __ptext8 11FF  
                __ptext9 10AA        __end_of_gpio_conf 10F4               _limit_mode 01A8  
             _limit_step 01A7                  _readAdc 1153                  _last_up 007B  
             ??___xxtofl 0042         ___awmod@dividend 00A2                  _ref_vol 0190  
                _v_index 00EC                  _tar_vol 0194                  clrloop0 10B0  
   end_of_initialization 003D           main@prev_limit 01CB      splitFloat@v_one_295 01D5  
             getAmps@adc 00C2               getAmps@sum 00C5               _motor_stop 10AA  
             _timer_conf 10C1              ?_getVoltage 00BA              ___fladd@grs 0033  
          ___xxtofl@sign 0046                _TRISAbits 0085                _TRISCbits 0087  
    custom_display@three 0071               _splitFloat 0B7A              ___fldiv@grs 00B4  
            ___fldiv@rem 00AD              ___flmul@grs 0062               main@toggle 007A  
       splitFloat@d_1000 00DB           __end_of___flge 13EC         main@limit_active 00E5  
       splitFloat@mv_hun 01CF         splitFloat@mv_ten 01D1      start_initialization 000F  
            __end_of_ISR 11FF                 ??___flge 00D3               init_fetch0 07ED  
              __Umul8_16 117B              __pdataBANK2 0110              __pdataBANK3 01B1  
            ?_motor_stop 0070              ?_timer_conf 0070                ___fladd@a 0024  
              ___fladd@b 0020                ___fldiv@a 00A0                ___fldiv@b 00A4  
              ___flmul@a 0058                ___flmul@b 0054              __pbssCOMMON 0078  
              ___flsub@a 004C                ___flsub@b 0050                ___latbits 0002  
          __pcstackBANK0 0020            __pcstackBANK1 00A0            __pcstackBANK3 01CD  
         splitFloat@d_10 00DD              ?_splitFloat 00D7                 ?___fladd 0020  
               ?___fldiv 00A0                 ?___awdiv 003E                 ?___awmod 00A0  
               ?___flmul 0054                 ?___flsub 004C                 ?___fltol 0034  
             ?__Umul8_16 0020                _direction 00EB                 ?_getAmps 00BA  
               ?_readAdc 0020                 _ADC_Init 1110                _gpio_conf 10D9  
              _last_down 01AB                _last_volt 01AA        interrupt_function 0004  
              clear_ram0 10AF                getAmps@ch 00C4                 _GO_nDONE 00F9  
         _custom_display 07AD               _ADCON0bits 001F               _ADCON1bits 009F  
           ??_getVoltage 00BE                main@error 00E6               ?_gpio_conf 0070  
              readAdc@ch 0023              _counter_pwm 0078   __end_of_custom_display 07ED  
     __end_of_getVoltage 1636              ??__Umul8_16 0022            _motor_forward 10B7  
          _motor_reverse 0801                 ___xxtofl 13EC          main@relay_state 01A1  
               __ptext10 0801                 __ptext11 10B7                 __ptext20 1110  
               __ptext12 10D9                 __ptext21 11A4                 __ptext13 156C  
               __ptext22 07AD                 __ptext14 14A2                 __ptext15 1153  
               __ptext16 13EC                 __ptext17 0838                 __ptext18 117B  
               __ptext19 1636                 _last_set 01AC                 getAmps@i 00C9  
        ?_custom_display 0070             ??_motor_stop 0020           ?_motor_forward 0070  
               _outputOk 01A9                 _voltage2 0198             ??_timer_conf 0020  
         ?_motor_reverse 0070               _INTCONbits 000B              ??_gpio_conf 0020  
   splitFloat@mv_hun_296 01D7             ??_splitFloat 00DF                 init_ram0 07F1  
   splitFloat@mv_ten_297 01D9                 intlevel1 0000       __end_of_motor_stop 10AF  
     __end_of_timer_conf 10D9         main@startup_mode 00E4       __end_of_splitFloat 1000  
 __Umul8_16@multiplicand 0020               _OPTION_REG 0081            ___fladd@signs 0030  
           ___fladd@aexp 0031             ___fladd@bexp 0032     __Umul8_16@multiplier 0028  
      __Umul8_16@product 0024  
